

Microchip MPLAB XC8 Assembler V2.45 build 20230818022343 
                                                                                               Fri Nov 17 00:14:11 2023

Microchip MPLAB XC8 C Compiler v2.45 (Free license) build 20230818022343 Og1 
     1                           	processor	18F4620
     2                           	fnconf	rparam,??,?,0
     3                           	pagewidth 120
     4                           	opt	flic
     5                           	psect	idataCOMRAM,global,class=CODE,delta=1,noexec
     6                           	psect	idataBANK0,global,class=CODE,delta=1,noexec
     7                           	psect	smallconst,global,reloc=2,class=SMALLCONST,delta=1,noexec
     8                           	psect	cinit,global,reloc=2,class=CODE,delta=1
     9                           	psect	bssCOMRAM,global,class=COMRAM,space=1,delta=1,lowdata,noexec
    10                           	psect	dataCOMRAM,global,class=COMRAM,space=1,delta=1,lowdata,noexec
    11                           	psect	dataBANK0,global,class=BANK0,space=1,delta=1,lowdata,noexec
    12                           	psect	cstackBANK0,global,class=BANK0,space=1,delta=1,lowdata,noexec
    13                           	psect	cstackCOMRAM,global,class=COMRAM,space=1,delta=1,lowdata,noexec
    14                           	psect	text0,global,reloc=2,class=CODE,delta=1
    15                           	psect	text1,global,reloc=2,class=CODE,delta=1
    16                           	psect	text2,global,reloc=2,class=CODE,delta=1
    17                           	psect	text3,global,reloc=2,class=CODE,delta=1
    18                           	psect	text4,global,reloc=2,class=CODE,delta=1
    19                           	psect	text5,global,reloc=2,class=CODE,delta=1
    20                           	psect	intcode,global,reloc=2,class=CODE,delta=1
    21                           	psect	intcode_body,global,reloc=2,class=CODE,delta=1
    22                           	psect	text7,global,reloc=2,class=CODE,delta=1
    23                           	psect	text8,global,reloc=2,class=CODE,delta=1
    24                           	psect	text9,global,reloc=2,class=CODE,delta=1
    25                           	psect	text10,global,reloc=2,class=CODE,delta=1
    26                           	psect	text11,global,reloc=2,class=CODE,delta=1
    27                           	psect	text12,global,reloc=2,class=CODE,delta=1
    28                           	psect	text13,global,reloc=2,class=CODE,delta=1
    29                           	psect	text14,global,reloc=2,class=CODE,delta=1
    30                           	psect	text15,global,reloc=2,class=CODE,delta=1
    31                           	psect	text16,global,reloc=2,class=CODE,delta=1
    32                           	psect	text17,global,reloc=2,class=CODE,delta=1
    33                           	psect	text18,global,reloc=2,class=CODE,delta=1
    34                           	psect	text19,global,reloc=2,class=CODE,delta=1
    35                           	psect	text20,global,reloc=2,class=CODE,delta=1
    36                           	psect	text21,global,reloc=2,class=CODE,delta=1
    37                           	psect	text22,global,reloc=2,class=CODE,delta=1
    38                           	psect	text23,global,reloc=2,class=CODE,delta=1
    39                           	psect	text24,global,reloc=2,class=CODE,delta=1
    40                           	psect	intsave_regs,global,class=BIGRAM,space=1,delta=1,noexec
    41                           	psect	text25,global,reloc=2,class=CODE,delta=1
    42                           	psect	rparam,global,class=COMRAM,space=1,delta=1,noexec
    43                           	psect	temp,global,ovrld,common,class=COMRAM,space=1,delta=1
    44                           	psect	config,global,abs,ovrld,class=CONFIG,space=4,delta=1,noexec
    45   000000                     
    46                           ; Generated 23/03/2023 GMT
    47                           ; 
    48                           ; Copyright © 2023, Microchip Technology Inc. and its subsidiaries ("Microchip")
    49                           ; All rights reserved.
    50                           ; 
    51                           ; This software is developed by Microchip Technology Inc. and its subsidiaries ("Microch
      +                          ip").
    52                           ; 
    53                           ; Redistribution and use in source and binary forms, with or without modification, are
    54                           ; permitted provided that the following conditions are met:
    55                           ; 
    56                           ;     1. Redistributions of source code must retain the above copyright notice, this lis
      +                          t of
    57                           ;        conditions and the following disclaimer.
    58                           ; 
    59                           ;     2. Redistributions in binary form must reproduce the above copyright notice, this 
      +                          list
    60                           ;        of conditions and the following disclaimer in the documentation and/or other
    61                           ;        materials provided with the distribution. Publication is not required when
    62                           ;        this file is used in an embedded application.
    63                           ; 
    64                           ;     3. Microchip's name may not be used to endorse or promote products derived from th
      +                          is
    65                           ;        software without specific prior written permission.
    66                           ; 
    67                           ; THIS SOFTWARE IS PROVIDED BY MICROCHIP "AS IS" AND ANY EXPRESS OR IMPLIED WARRANTIES,
    68                           ; INCLUDING, BUT NOT LIMITED TO, THE IMPLIED WARRANTIES OF MERCHANTABILITY AND FITNESS F
      +                          OR
    69                           ; PURPOSE ARE DISCLAIMED.  IN NO EVENT SHALL MICROCHIP BE LIABLE FOR ANY DIRECT, INDIREC
      +                          T,
    70                           ; INCIDENTAL, SPECIAL, EXEMPLARY, OR CONSEQUENTIAL DAMAGES (INCLUDING BUT NOT LIMITED TO
    71                           ; PROCUREMENT OF SUBSTITUTE GOODS OR SERVICES; LOSS OF USE, DATA OR PROFITS; OR BUSINESS
    72                           ; INTERRUPTION) HOWSOEVER CAUSED AND ON ANY THEORY OF LIABILITY, WHETHER IN CONTRACT, ST
      +                          RICT
    73                           ; LIABILITY, OR TORT (INCLUDING NEGLIGENCE OR OTHERWISE) ARISING IN ANY WAY OUT OF THE U
      +                          SE OF
    74                           ; THIS SOFTWARE, EVEN IF ADVISED OF THE POSSIBILITY OF SUCH DAMAGE.
    75                           ; 
    76                           ; 
    77                           ; Code-generator required, PIC18F4620 Definitions
    78                           ; 
    79                           ; SFR Addresses
    80   000000                     
    81                           	psect	idataCOMRAM
    82   001C44                     __pidataCOMRAM:
    83                           	callstack 0
    84                           
    85                           ;initializer for _lat_registers
    86   001C44  89                 	db	137
    87   001C45  0F                 	db	15
    88   001C46  8A                 	db	138
    89   001C47  0F                 	db	15
    90   001C48  8B                 	db	139
    91   001C49  0F                 	db	15
    92   001C4A  8C                 	db	140
    93   001C4B  0F                 	db	15
    94   001C4C  8D                 	db	141
    95   001C4D  0F                 	db	15
    96                           
    97                           ;initializer for _tris_registers
    98   001C4E  92                 	db	146
    99   001C4F  0F                 	db	15
   100   001C50  93                 	db	147
   101   001C51  0F                 	db	15
   102   001C52  94                 	db	148
   103   001C53  0F                 	db	15
   104   001C54  95                 	db	149
   105   001C55  0F                 	db	15
   106   001C56  96                 	db	150
   107   001C57  0F                 	db	15
   108                           
   109                           ;initializer for _RB7_enter
   110   001C58  01                 	db	1
   111                           
   112                           ;initializer for _RB6_enter
   113   001C59  01                 	db	1
   114                           
   115                           ;initializer for _RB5_enter
   116   001C5A  01                 	db	1
   117                           
   118                           ;initializer for _RB4_enter
   119   001C5B  01                 	db	1
   120                           
   121                           ;initializer for _ret
   122   001C5C  01                 	db	1
   123                           
   124                           ;initializer for _int3
   125   001C5D  94                 	db	low _toggleLED4_Low
   126   001C5E  1C                 	db	high _toggleLED4_Low
   127   001C5F  C4                 	db	low _toggleLED4_High
   128   001C60  1C                 	db	high _toggleLED4_High
   129   001C61  79                 	db	121
   130   001C62  01                 	db	1
   131                           
   132                           ;initializer for _int2
   133   001C63  A0                 	db	low _toggleLED3_Low
   134   001C64  1C                 	db	high _toggleLED3_Low
   135   001C65  D0                 	db	low _toggleLED3_High
   136   001C66  1C                 	db	high _toggleLED3_High
   137   001C67  71                 	db	113
   138   001C68  01                 	db	1
   139                           
   140                           ;initializer for _int1
   141   001C69  AC                 	db	low _toggleLED2_Low
   142   001C6A  1C                 	db	high _toggleLED2_Low
   143   001C6B  DC                 	db	low _toggleLED2_High
   144   001C6C  1C                 	db	high _toggleLED2_High
   145   001C6D  69                 	db	105
   146   001C6E  01                 	db	1
   147                           
   148                           ;initializer for _int0
   149   001C6F  B8                 	db	low _toggleLED_Low
   150   001C70  1C                 	db	high _toggleLED_Low
   151   001C71  E8                 	db	low _toggleLED_High
   152   001C72  1C                 	db	high _toggleLED_High
   153   001C73  61                 	db	97
   154   001C74  01                 	db	1
   155                           
   156                           ;initializer for _led4
   157   001C75  33                 	db	51
   158                           
   159                           ;initializer for _led3
   160   001C76  23                 	db	35
   161                           
   162                           ;initializer for _led2
   163   001C77  13                 	db	19
   164                           
   165                           ;initializer for _led1
   166   001C78  03                 	db	3
   167                           
   168                           	psect	idataBANK0
   169   001C79                     __pidataBANK0:
   170                           	callstack 0
   171                           
   172                           ;initializer for _port_registers
   173   001C79  80                 	db	128
   174   001C7A  0F                 	db	15
   175   001C7B  81                 	db	129
   176   001C7C  0F                 	db	15
   177   001C7D  82                 	db	130
   178   001C7E  0F                 	db	15
   179   001C7F  83                 	db	131
   180   001C80  0F                 	db	15
   181   001C81  84                 	db	132
   182   001C82  0F                 	db	15
   183                           
   184                           ;initializer for _lcd_8bit
   185   001C83  32                 	db	50
   186   001C84  3A                 	db	58
   187   001C85  03                 	db	3
   188   001C86  0B                 	db	11
   189   001C87  13                 	db	19
   190   001C88  1B                 	db	27
   191   001C89  23                 	db	35
   192   001C8A  2B                 	db	43
   193   001C8B  33                 	db	51
   194   001C8C  3B                 	db	59
   195                           
   196                           ;initializer for _lcd_4bit
   197   001C8D  02                 	db	2
   198   001C8E  0A                 	db	10
   199   001C8F  12                 	db	18
   200   001C90  1A                 	db	26
   201   001C91  22                 	db	34
   202   001C92  2A                 	db	42
   203                           
   204                           	psect	smallconst
   205   001000                     __psmallconst:
   206                           	callstack 0
   207   001000  00                 	db	0
   208   001001                     _btn_values:
   209                           	callstack 0
   210   001001  37                 	db	55
   211   001002  38                 	db	56
   212   001003  39                 	db	57
   213   001004  2F                 	db	47
   214   001005  34                 	db	52
   215   001006  35                 	db	53
   216   001007  36                 	db	54
   217   001008  2A                 	db	42
   218   001009  31                 	db	49
   219   00100A  32                 	db	50
   220   00100B  33                 	db	51
   221   00100C  2D                 	db	45
   222   00100D  23                 	db	35
   223   00100E  30                 	db	48
   224   00100F  3D                 	db	61
   225   001010  2B                 	db	43
   226   001011                     __end_of_btn_values:
   227                           	callstack 0
   228   000000                     _INTCON2bits	set	4081
   229   000000                     _PORTBbits	set	3969
   230   000000                     _INTCON3bits	set	4080
   231   000000                     _INTCONbits	set	4082
   232   001011  00                 	db	0	; dummy byte at the end
   233   000000                     
   234                           ; #config settings
   235                           
   236                           	psect	cinit
   237   001BAA                     __pcinit:
   238                           	callstack 0
   239   001BAA                     start_initialization:
   240                           	callstack 0
   241   001BAA                     __initialization:
   242                           	callstack 0
   243                           
   244                           ; Initialize objects allocated to BANK0 (26 bytes)
   245                           ; load TBLPTR registers with __pidataBANK0
   246   001BAA  0E79               	movlw	low __pidataBANK0
   247   001BAC  6EF6               	movwf	tblptrl,c
   248   001BAE  0E1C               	movlw	high __pidataBANK0
   249   001BB0  6EF7               	movwf	tblptrh,c
   250   001BB2  0E00               	movlw	low (__pidataBANK0 shr (0+16))
   251   001BB4  6EF8               	movwf	tblptru,c
   252   001BB6  EE00  F080         	lfsr	0,__pdataBANK0
   253   001BBA  EE10 F01A          	lfsr	1,26
   254   001BBE                     copy_data0:
   255   001BBE  0009               	tblrd		*+
   256   001BC0  CFF5 FFEE          	movff	tablat,postinc0
   257   001BC4  50E5               	movf	postdec1,w,c
   258   001BC6  50E1               	movf	fsr1l,w,c
   259   001BC8  E1FA               	bnz	copy_data0
   260                           
   261                           ; Initialize objects allocated to COMRAM (53 bytes)
   262                           ; load TBLPTR registers with __pidataCOMRAM
   263   001BCA  0E44               	movlw	low __pidataCOMRAM
   264   001BCC  6EF6               	movwf	tblptrl,c
   265   001BCE  0E1C               	movlw	high __pidataCOMRAM
   266   001BD0  6EF7               	movwf	tblptrh,c
   267   001BD2  0E00               	movlw	low (__pidataCOMRAM shr (0+16))
   268   001BD4  6EF8               	movwf	tblptru,c
   269   001BD6  EE00  F001         	lfsr	0,__pdataCOMRAM
   270   001BDA  EE10 F035          	lfsr	1,53
   271   001BDE                     copy_data1:
   272   001BDE  0009               	tblrd		*+
   273   001BE0  CFF5 FFEE          	movff	tablat,postinc0
   274   001BE4  50E5               	movf	postdec1,w,c
   275   001BE6  50E1               	movf	fsr1l,w,c
   276   001BE8  E1FA               	bnz	copy_data1
   277                           
   278                           ; Clear objects allocated to COMRAM (37 bytes)
   279   001BEA  EE00  F036         	lfsr	0,__pbssCOMRAM
   280   001BEE  0E25               	movlw	37
   281   001BF0                     clear_0:
   282   001BF0  6AEE               	clrf	postinc0,c
   283   001BF2  06E8               	decf	wreg,f,c
   284   001BF4  E1FD               	bnz	clear_0
   285   001BF6                     end_of_initialization:
   286                           	callstack 0
   287   001BF6                     __end_of__initialization:
   288                           	callstack 0
   289   001BF6  906F               	bcf	int$flags,0,c	;clear compiler interrupt flag (level 1)
   290   001BF8  926F               	bcf	int$flags,1,c	;clear compiler interrupt flag (level 2)
   291   001BFA  0100               	movlb	0
   292   001BFC  EFA1  F00D         	goto	_main	;jump to C main() function
   293                           
   294                           	psect	bssCOMRAM
   295   000036                     __pbssCOMRAM:
   296                           	callstack 0
   297   000036                     _RB7_InterruptHandler_HIGH:
   298                           	callstack 0
   299   000036                     	ds	2
   300   000038                     _RB6_InterruptHandler_HIGH:
   301                           	callstack 0
   302   000038                     	ds	2
   303   00003A                     _RB5_InterruptHandler_HIGH:
   304                           	callstack 0
   305   00003A                     	ds	2
   306   00003C                     _RB4_InterruptHandler_HIGH:
   307                           	callstack 0
   308   00003C                     	ds	2
   309   00003E                     _RB7_InterruptHandler_LOW:
   310                           	callstack 0
   311   00003E                     	ds	2
   312   000040                     _RB6_InterruptHandler_LOW:
   313                           	callstack 0
   314   000040                     	ds	2
   315   000042                     _RB5_InterruptHandler_LOW:
   316                           	callstack 0
   317   000042                     	ds	2
   318   000044                     _RB4_InterruptHandler_LOW:
   319                           	callstack 0
   320   000044                     	ds	2
   321   000046                     _EXTI2_InterruptHandler:
   322                           	callstack 0
   323   000046                     	ds	2
   324   000048                     _EXTI1_InterruptHandler:
   325                           	callstack 0
   326   000048                     	ds	2
   327   00004A                     _EXTI0_InterruptHandler:
   328                           	callstack 0
   329   00004A                     	ds	2
   330   00004C                     relay_turn_off@F2895:
   331                           	callstack 0
   332   00004C                     	ds	1
   333   00004D                     relay_turn_on@F2890:
   334                           	callstack 0
   335   00004D                     	ds	1
   336   00004E                     relay_initialize@F2885:
   337                           	callstack 0
   338   00004E                     	ds	1
   339   00004F                     led_toggle@F2906:
   340                           	callstack 0
   341   00004F                     	ds	1
   342   000050                     led_turn_off@F2901:
   343                           	callstack 0
   344   000050                     	ds	1
   345   000051                     led_turn_on@F2896:
   346                           	callstack 0
   347   000051                     	ds	1
   348   000052                     led_initalize@F2891:
   349                           	callstack 0
   350   000052                     	ds	1
   351   000053                     dc_motor_stop@F2913:
   352                           	callstack 0
   353   000053                     	ds	1
   354   000054                     dc_motor_stop@F2911:
   355                           	callstack 0
   356   000054                     	ds	1
   357   000055                     dc_motor_move_left@F2906:
   358                           	callstack 0
   359   000055                     	ds	1
   360   000056                     dc_motor_move_left@F2904:
   361                           	callstack 0
   362   000056                     	ds	1
   363   000057                     dc_motor_move_right@F2899:
   364                           	callstack 0
   365   000057                     	ds	1
   366   000058                     dc_motor_move_right@F2897:
   367                           	callstack 0
   368   000058                     	ds	1
   369   000059                     dc_motor_initialize@F2892:
   370                           	callstack 0
   371   000059                     	ds	1
   372   00005A                     dc_motor_initialize@F2890:
   373                           	callstack 0
   374   00005A                     	ds	1
   375                           
   376                           	psect	dataCOMRAM
   377   000001                     __pdataCOMRAM:
   378                           	callstack 0
   379   000001                     _lat_registers:
   380                           	callstack 0
   381   000001                     	ds	10
   382   00000B                     _tris_registers:
   383                           	callstack 0
   384   00000B                     	ds	10
   385   000015                     _RB7_enter:
   386                           	callstack 0
   387   000015                     	ds	1
   388   000016                     _RB6_enter:
   389                           	callstack 0
   390   000016                     	ds	1
   391   000017                     _RB5_enter:
   392                           	callstack 0
   393   000017                     	ds	1
   394   000018                     _RB4_enter:
   395                           	callstack 0
   396   000018                     	ds	1
   397   000019                     _ret:
   398                           	callstack 0
   399   000019                     	ds	1
   400   00001A                     _int3:
   401                           	callstack 0
   402   00001A                     	ds	6
   403   000020                     _int2:
   404                           	callstack 0
   405   000020                     	ds	6
   406   000026                     _int1:
   407                           	callstack 0
   408   000026                     	ds	6
   409   00002C                     _int0:
   410                           	callstack 0
   411   00002C                     	ds	6
   412   000032                     _led4:
   413                           	callstack 0
   414   000032                     	ds	1
   415   000033                     _led3:
   416                           	callstack 0
   417   000033                     	ds	1
   418   000034                     _led2:
   419                           	callstack 0
   420   000034                     	ds	1
   421   000035                     _led1:
   422                           	callstack 0
   423   000035                     	ds	1
   424                           
   425                           	psect	dataBANK0
   426   000080                     __pdataBANK0:
   427                           	callstack 0
   428   000080                     _port_registers:
   429                           	callstack 0
   430   000080                     	ds	10
   431   00008A                     _lcd_8bit:
   432                           	callstack 0
   433   00008A                     	ds	10
   434   000094                     _lcd_4bit:
   435                           	callstack 0
   436   000094                     	ds	6
   437                           
   438                           	psect	cstackBANK0
   439   00009A                     __pcstackBANK0:
   440                           	callstack 0
   441   00009A                     gpio_pin_direction_initalize@_pin_config:
   442                           	callstack 0
   443   00009A                     gpio_pin_write_logic@_pin_config:
   444                           	callstack 0
   445                           
   446                           ; 1 bytes @ 0x0
   447   00009A                     	ds	1
   448   00009B                     ??_gpio_pin_direction_initalize:
   449   00009B                     gpio_pin_write_logic@logic:
   450                           	callstack 0
   451                           
   452                           ; 1 bytes @ 0x1
   453   00009B                     	ds	1
   454   00009C                     ??_gpio_pin_write_logic:
   455                           
   456                           ; 1 bytes @ 0x2
   457   00009C                     	ds	4
   458   0000A0                     gpio_pin_direction_initalize@status:
   459                           	callstack 0
   460                           
   461                           ; 1 bytes @ 0x6
   462   0000A0                     	ds	1
   463   0000A1                     gpio_pin_write_logic@status:
   464                           	callstack 0
   465   0000A1                     interrupt_RBx_Init@int_obj:
   466                           	callstack 0
   467                           
   468                           ; 1 bytes @ 0x7
   469   0000A1                     	ds	1
   470   0000A2                     ??_interrupt_RBx_Init:
   471   0000A2                     gpio_pin_initalize@_pin_config:
   472                           	callstack 0
   473                           
   474                           ; 1 bytes @ 0x8
   475   0000A2                     	ds	1
   476   0000A3                     gpio_pin_initalize@ret:
   477                           	callstack 0
   478                           
   479                           ; 1 bytes @ 0x9
   480   0000A3                     	ds	1
   481   0000A4                     led_initalize@led:
   482                           	callstack 0
   483   0000A4                     interrupt_RBx_Init@ret:
   484                           	callstack 0
   485                           
   486                           ; 1 bytes @ 0xA
   487   0000A4                     	ds	1
   488   0000A5                     ??_led_initalize:
   489                           
   490                           ; 1 bytes @ 0xB
   491   0000A5                     	ds	1
   492   0000A6                     led_initalize@status:
   493                           	callstack 0
   494                           
   495                           ; 1 bytes @ 0xC
   496   0000A6                     	ds	1
   497   0000A7                     led_initalize@pin_init:
   498                           	callstack 0
   499                           
   500                           ; 1 bytes @ 0xD
   501   0000A7                     	ds	1
   502   0000A8                     
   503                           ; 1 bytes @ 0xE
   504                           
   505                           	psect	cstackCOMRAM
   506   00005B                     __pcstackCOMRAM:
   507                           	callstack 0
   508   00005B                     i2gpio_pin_write_logic@_pin_config:
   509                           	callstack 0
   510                           
   511                           ; 1 bytes @ 0x0
   512   00005B                     	ds	1
   513   00005C                     i2gpio_pin_write_logic@logic:
   514                           	callstack 0
   515                           
   516                           ; 1 bytes @ 0x1
   517   00005C                     	ds	1
   518   00005D                     ??i2_gpio_pin_write_logic:
   519                           
   520                           ; 1 bytes @ 0x2
   521   00005D                     	ds	5
   522   000062                     led_turn_on@led:
   523                           	callstack 0
   524   000062                     led_turn_off@led:
   525                           	callstack 0
   526                           
   527                           ; 1 bytes @ 0x7
   528   000062                     	ds	1
   529   000063                     ??_led_turn_on:
   530   000063                     ??_led_turn_off:
   531                           
   532                           ; 1 bytes @ 0x8
   533   000063                     	ds	1
   534   000064                     led_turn_on@status:
   535                           	callstack 0
   536   000064                     led_turn_off@status:
   537                           	callstack 0
   538                           
   539                           ; 1 bytes @ 0x9
   540   000064                     	ds	1
   541   000065                     led_turn_on@pin_init:
   542                           	callstack 0
   543   000065                     led_turn_off@pin_init:
   544                           	callstack 0
   545                           
   546                           ; 1 bytes @ 0xA
   547   000065                     	ds	1
   548   000066                     ??_RB4_ISR:
   549   000066                     ??_RB5_ISR:
   550   000066                     ??_RB6_ISR:
   551   000066                     ??_RB7_ISR:
   552                           
   553                           ; 1 bytes @ 0xB
   554   000066                     	ds	2
   555   000068                     RB4_ISR@RB4_Int:
   556                           	callstack 0
   557   000068                     RB5_ISR@RB5_Int:
   558                           	callstack 0
   559   000068                     RB6_ISR@RB6_Int:
   560                           	callstack 0
   561   000068                     RB7_ISR@RB7_Int:
   562                           	callstack 0
   563                           
   564                           ; 1 bytes @ 0xD
   565   000068                     	ds	1
   566   000069                     ??_InterruptManagerHigh:
   567                           
   568                           ; 1 bytes @ 0xE
   569   000069                     	ds	6
   570                           
   571 ;;
   572 ;;Main: autosize = 0, tempsize = 0, incstack = 0, save=0
   573 ;;
   574 ;; *************** function _main *****************
   575 ;; Defined at:
   576 ;;		line 38 in file "application.c"
   577 ;; Parameters:    Size  Location     Type
   578 ;;		None
   579 ;; Auto vars:     Size  Location     Type
   580 ;;		None
   581 ;; Return value:  Size  Location     Type
   582 ;;                  2  467[None  ] int 
   583 ;; Registers used:
   584 ;;		wreg, fsr2l, fsr2h, status,2, status,0, prodl, prodh, cstack
   585 ;; Tracked objects:
   586 ;;		On entry : 0/0
   587 ;;		On exit  : 0/0
   588 ;;		Unchanged: 0/0
   589 ;; Data sizes:     COMRAM   BANK0   BANK1   BANK2   BANK3   BANK4   BANK5   BANK6   BANK7   BANK8   BANK9  BANK10  BANK1
      +1  BANK12  BANK13  BANK14  BANK15
   590 ;;      Params:         0       0       0       0       0       0       0       0       0       0       0       0       
      +0       0       0       0       0
   591 ;;      Locals:         0       0       0       0       0       0       0       0       0       0       0       0       
      +0       0       0       0       0
   592 ;;      Temps:          0       0       0       0       0       0       0       0       0       0       0       0       
      +0       0       0       0       0
   593 ;;      Totals:         0       0       0       0       0       0       0       0       0       0       0       0       
      +0       0       0       0       0
   594 ;;Total ram usage:        0 bytes
   595 ;; Hardware stack levels required when called: 8
   596 ;; This function calls:
   597 ;;		_interrupt_RBx_Init
   598 ;;		_led_initalize
   599 ;; This function is called by:
   600 ;;		Startup code after reset
   601 ;; This function uses a non-reentrant model
   602 ;;
   603                           
   604                           	psect	text0
   605   001B42                     __ptext0:
   606                           	callstack 0
   607   001B42                     _main:
   608                           	callstack 23
   609   001B42                     
   610                           ;application.c: 42:   ret=interrupt_RBx_Init(&int0);
   611   001B42  0E2C               	movlw	low _int0
   612   001B44  0100               	movlb	0	; () banked
   613   001B46  6FA1               	movwf	interrupt_RBx_Init@int_obj& (0+255),b
   614   001B48  EC48  F00B         	call	_interrupt_RBx_Init	;wreg free
   615   001B4C  6E19               	movwf	_ret^0,c
   616                           
   617                           ;application.c: 43:   ret=interrupt_RBx_Init(&int1);
   618   001B4E  0E26               	movlw	low _int1
   619   001B50  0100               	movlb	0	; () banked
   620   001B52  6FA1               	movwf	interrupt_RBx_Init@int_obj& (0+255),b
   621   001B54  EC48  F00B         	call	_interrupt_RBx_Init	;wreg free
   622   001B58  6E19               	movwf	_ret^0,c
   623                           
   624                           ;application.c: 44:   ret=interrupt_RBx_Init(&int2);
   625   001B5A  0E20               	movlw	low _int2
   626   001B5C  0100               	movlb	0	; () banked
   627   001B5E  6FA1               	movwf	interrupt_RBx_Init@int_obj& (0+255),b
   628   001B60  EC48  F00B         	call	_interrupt_RBx_Init	;wreg free
   629   001B64  6E19               	movwf	_ret^0,c
   630                           
   631                           ;application.c: 45:   ret=interrupt_RBx_Init(&int3);
   632   001B66  0E1A               	movlw	low _int3
   633   001B68  0100               	movlb	0	; () banked
   634   001B6A  6FA1               	movwf	interrupt_RBx_Init@int_obj& (0+255),b
   635   001B6C  EC48  F00B         	call	_interrupt_RBx_Init	;wreg free
   636   001B70  6E19               	movwf	_ret^0,c
   637                           
   638                           ;application.c: 48:   ret=led_initalize(&led1);
   639   001B72  0E35               	movlw	low _led1
   640   001B74  0100               	movlb	0	; () banked
   641   001B76  6FA4               	movwf	led_initalize@led& (0+255),b
   642   001B78  ECF2  F00C         	call	_led_initalize	;wreg free
   643   001B7C  6E19               	movwf	_ret^0,c
   644                           
   645                           ;application.c: 49:   ret=led_initalize(&led2);
   646   001B7E  0E34               	movlw	low _led2
   647   001B80  0100               	movlb	0	; () banked
   648   001B82  6FA4               	movwf	led_initalize@led& (0+255),b
   649   001B84  ECF2  F00C         	call	_led_initalize	;wreg free
   650   001B88  6E19               	movwf	_ret^0,c
   651                           
   652                           ;application.c: 50:   ret=led_initalize(&led3);
   653   001B8A  0E33               	movlw	low _led3
   654   001B8C  0100               	movlb	0	; () banked
   655   001B8E  6FA4               	movwf	led_initalize@led& (0+255),b
   656   001B90  ECF2  F00C         	call	_led_initalize	;wreg free
   657   001B94  6E19               	movwf	_ret^0,c
   658                           
   659                           ;application.c: 51:   ret=led_initalize(&led4);
   660   001B96  0E32               	movlw	low _led4
   661   001B98  0100               	movlb	0	; () banked
   662   001B9A  6FA4               	movwf	led_initalize@led& (0+255),b
   663   001B9C  ECF2  F00C         	call	_led_initalize	;wreg free
   664   001BA0  6E19               	movwf	_ret^0,c
   665   001BA2                     l468:
   666   001BA2  EFD1  F00D         	goto	l468
   667   001BA6  EF07  F000         	goto	start
   668   001BAA                     __end_of_main:
   669                           	callstack 0
   670                           
   671 ;; *************** function _led_initalize *****************
   672 ;; Defined at:
   673 ;;		line 16 in file "ECU_layer/LED/ecu_led.c"
   674 ;; Parameters:    Size  Location     Type
   675 ;;  led             1   10[BANK0 ] PTR const struct .
   676 ;;		 -> led4(1), led3(1), led2(1), led1(1), 
   677 ;; Auto vars:     Size  Location     Type
   678 ;;  pin_init        1   13[BANK0 ] struct .
   679 ;;  status          1   12[BANK0 ] unsigned char 
   680 ;; Return value:  Size  Location     Type
   681 ;;                  1    wreg      unsigned char 
   682 ;; Registers used:
   683 ;;		wreg, fsr2l, fsr2h, status,2, status,0, prodl, prodh, cstack
   684 ;; Tracked objects:
   685 ;;		On entry : 0/0
   686 ;;		On exit  : 0/0
   687 ;;		Unchanged: 0/0
   688 ;; Data sizes:     COMRAM   BANK0   BANK1   BANK2   BANK3   BANK4   BANK5   BANK6   BANK7   BANK8   BANK9  BANK10  BANK1
      +1  BANK12  BANK13  BANK14  BANK15
   689 ;;      Params:         0       1       0       0       0       0       0       0       0       0       0       0       
      +0       0       0       0       0
   690 ;;      Locals:         0       2       0       0       0       0       0       0       0       0       0       0       
      +0       0       0       0       0
   691 ;;      Temps:          0       1       0       0       0       0       0       0       0       0       0       0       
      +0       0       0       0       0
   692 ;;      Totals:         0       4       0       0       0       0       0       0       0       0       0       0       
      +0       0       0       0       0
   693 ;;Total ram usage:        4 bytes
   694 ;; Hardware stack levels used: 1
   695 ;; Hardware stack levels required when called: 7
   696 ;; This function calls:
   697 ;;		_gpio_pin_initalize
   698 ;; This function is called by:
   699 ;;		_main
   700 ;; This function uses a non-reentrant model
   701 ;;
   702                           
   703                           	psect	text1
   704   0019E4                     __ptext1:
   705                           	callstack 0
   706   0019E4                     _led_initalize:
   707                           	callstack 23
   708   0019E4                     
   709                           ;ECU_layer/LED/ecu_led.c: 16: Std_ReturnType led_initalize(const led_t *led);ECU_layer/L
      +                          ED/ecu_led.c: 17: {;ECU_layer/LED/ecu_led.c: 18:     Std_ReturnType status=(Std_ReturnTy
      +                          pe)0x01;
   710   0019E4  0E01               	movlw	1
   711   0019E6  0100               	movlb	0	; () banked
   712   0019E8  6FA6               	movwf	led_initalize@status& (0+255),b
   713                           
   714                           ;ECU_layer/LED/ecu_led.c: 19:     if(((void*)0) == led)
   715   0019EA  51A4               	movf	led_initalize@led& (0+255),w,b
   716   0019EC  A4D8               	btfss	status,2,c
   717   0019EE  EFFB  F00C         	goto	u3581
   718   0019F2  EFFD  F00C         	goto	u3580
   719   0019F6                     u3581:
   720   0019F6  EF01  F00D         	goto	l266
   721   0019FA                     u3580:
   722   0019FA                     
   723                           ; BSR set to: 0
   724                           ;ECU_layer/LED/ecu_led.c: 20:     {;ECU_layer/LED/ecu_led.c: 21:         status=(Std_Ret
      +                          urnType)0x00;
   725   0019FA  0E00               	movlw	0
   726   0019FC  6FA6               	movwf	led_initalize@status& (0+255),b
   727                           
   728                           ;ECU_layer/LED/ecu_led.c: 22:     }
   729   0019FE  EF2A  F00D         	goto	l4069
   730   001A02                     l266:
   731                           
   732                           ; BSR set to: 0
   733                           ;ECU_layer/LED/ecu_led.c: 24:     {;ECU_layer/LED/ecu_led.c: 25:         pin_config_t pi
      +                          n_init={
   734   001A02  C052  F0A7         	movff	led_initalize@F2891,led_initalize@pin_init
   735   001A06                     
   736                           ; BSR set to: 0
   737   001A06  51A4               	movf	led_initalize@led& (0+255),w,b
   738   001A08  6ED9               	movwf	fsr2l,c
   739   001A0A  6ADA               	clrf	fsr2h,c
   740   001A0C  50DF               	movf	223,w,c
   741   001A0E  0B0F               	andlw	15
   742   001A10  6FA5               	movwf	??_led_initalize& (0+255),b
   743   001A12  51A7               	movf	led_initalize@pin_init& (0+255),w,b
   744   001A14  19A5               	xorwf	??_led_initalize& (0+255),w,b
   745   001A16  0BF8               	andlw	-8
   746   001A18  19A5               	xorwf	??_led_initalize& (0+255),w,b
   747   001A1A  6FA7               	movwf	led_initalize@pin_init& (0+255),b
   748   001A1C  51A4               	movf	led_initalize@led& (0+255),w,b
   749   001A1E  6ED9               	movwf	fsr2l,c
   750   001A20  6ADA               	clrf	fsr2h,c
   751   001A22  38DF               	swapf	223,w,c
   752   001A24  0B07               	andlw	7
   753   001A26  6FA5               	movwf	??_led_initalize& (0+255),b
   754   001A28  47A5               	rlncf	??_led_initalize& (0+255),f,b
   755   001A2A  47A5               	rlncf	??_led_initalize& (0+255),f,b
   756   001A2C  47A5               	rlncf	??_led_initalize& (0+255),f,b
   757   001A2E  51A7               	movf	led_initalize@pin_init& (0+255),w,b
   758   001A30  19A5               	xorwf	??_led_initalize& (0+255),w,b
   759   001A32  0BC7               	andlw	-57
   760   001A34  19A5               	xorwf	??_led_initalize& (0+255),w,b
   761   001A36  6FA7               	movwf	led_initalize@pin_init& (0+255),b
   762   001A38                     
   763                           ; BSR set to: 0
   764   001A38  9DA7               	bcf	led_initalize@pin_init& (0+255),6,b
   765   001A3A                     
   766                           ; BSR set to: 0
   767   001A3A  51A4               	movf	led_initalize@led& (0+255),w,b
   768   001A3C  6ED9               	movwf	fsr2l,c
   769   001A3E  6ADA               	clrf	fsr2h,c
   770   001A40  AEDF               	btfss	indf2,7,c
   771   001A42  D002               	bra	u3595
   772   001A44  8FA7               	bsf	led_initalize@pin_init& (0+255),7,b
   773   001A46  D002               	bra	u3597
   774   001A48                     u3595:
   775   001A48  0100               	movlb	0	; () banked
   776   001A4A  9FA7               	bcf	led_initalize@pin_init& (0+255),7,b
   777   001A4C                     u3597:
   778   001A4C                     
   779                           ; BSR set to: 0
   780                           ;ECU_layer/LED/ecu_led.c: 31:         gpio_pin_initalize(&pin_init);
   781   001A4C  0EA7               	movlw	low led_initalize@pin_init
   782   001A4E  6FA2               	movwf	gpio_pin_initalize@_pin_config& (0+255),b
   783   001A50  EC00  F00E         	call	_gpio_pin_initalize	;wreg free
   784   001A54                     l4069:
   785                           
   786                           ;ECU_layer/LED/ecu_led.c: 33:     return status;
   787   001A54  0100               	movlb	0	; () banked
   788   001A56  51A6               	movf	led_initalize@status& (0+255),w,b
   789   001A58                     
   790                           ; BSR set to: 0
   791   001A58  0012               	return		;funcret
   792   001A5A                     __end_of_led_initalize:
   793                           	callstack 0
   794                           
   795 ;; *************** function _gpio_pin_initalize *****************
   796 ;; Defined at:
   797 ;;		line 159 in file "MCAL_layer/GPIO/hal_gpio.c"
   798 ;; Parameters:    Size  Location     Type
   799 ;;  _pin_config     1    8[BANK0 ] PTR const struct .
   800 ;;		 -> relay_initialize@pin(1), led_initalize@pin_init(1), dc_motor_initialize@pin2(1), dc_motor_initialize@pin1(1), 
   801 ;; Auto vars:     Size  Location     Type
   802 ;;  ret             1    9[BANK0 ] unsigned char 
   803 ;; Return value:  Size  Location     Type
   804 ;;                  1    wreg      unsigned char 
   805 ;; Registers used:
   806 ;;		wreg, fsr2l, fsr2h, status,2, status,0, prodl, prodh, cstack
   807 ;; Tracked objects:
   808 ;;		On entry : 0/0
   809 ;;		On exit  : 0/0
   810 ;;		Unchanged: 0/0
   811 ;; Data sizes:     COMRAM   BANK0   BANK1   BANK2   BANK3   BANK4   BANK5   BANK6   BANK7   BANK8   BANK9  BANK10  BANK1
      +1  BANK12  BANK13  BANK14  BANK15
   812 ;;      Params:         0       1       0       0       0       0       0       0       0       0       0       0       
      +0       0       0       0       0
   813 ;;      Locals:         0       1       0       0       0       0       0       0       0       0       0       0       
      +0       0       0       0       0
   814 ;;      Temps:          0       0       0       0       0       0       0       0       0       0       0       0       
      +0       0       0       0       0
   815 ;;      Totals:         0       2       0       0       0       0       0       0       0       0       0       0       
      +0       0       0       0       0
   816 ;;Total ram usage:        2 bytes
   817 ;; Hardware stack levels used: 1
   818 ;; Hardware stack levels required when called: 6
   819 ;; This function calls:
   820 ;;		_gpio_pin_direction_initalize
   821 ;;		_gpio_pin_write_logic
   822 ;; This function is called by:
   823 ;;		_led_initalize
   824 ;;		_dc_motor_initialize
   825 ;;		_keypad_initalize
   826 ;;		_lcd_4bit_initalize
   827 ;;		_lcd_8bit_initalize
   828 ;;		_relay_initialize
   829 ;;		_ssd_initalize
   830 ;; This function uses a non-reentrant model
   831 ;;
   832                           
   833                           	psect	text2
   834   001C00                     __ptext2:
   835                           	callstack 0
   836   001C00                     _gpio_pin_initalize:
   837                           	callstack 23
   838   001C00                     
   839                           ;MCAL_layer/GPIO/hal_gpio.c: 162:     if(((void*)0) == _pin_config)
   840   001C00  0100               	movlb	0	; () banked
   841   001C02  51A2               	movf	gpio_pin_initalize@_pin_config& (0+255),w,b
   842   001C04  A4D8               	btfss	status,2,c
   843   001C06  EF07  F00E         	goto	u3471
   844   001C0A  EF09  F00E         	goto	u3470
   845   001C0E                     u3471:
   846   001C0E  EF0D  F00E         	goto	l3911
   847   001C12                     u3470:
   848   001C12                     
   849                           ; BSR set to: 0
   850                           ;MCAL_layer/GPIO/hal_gpio.c: 163:     {;MCAL_layer/GPIO/hal_gpio.c: 164:         ret=(St
      +                          d_ReturnType)0x00;
   851   001C12  0E00               	movlw	0
   852   001C14  6FA3               	movwf	gpio_pin_initalize@ret& (0+255),b
   853                           
   854                           ;MCAL_layer/GPIO/hal_gpio.c: 165:     }
   855   001C16  EF20  F00E         	goto	l3913
   856   001C1A                     l3911:
   857                           
   858                           ; BSR set to: 0
   859                           ;MCAL_layer/GPIO/hal_gpio.c: 167:     {;MCAL_layer/GPIO/hal_gpio.c: 168:         ret=gpi
      +                          o_pin_direction_initalize(_pin_config);
   860   001C1A  C0A2  F09A         	movff	gpio_pin_initalize@_pin_config,gpio_pin_direction_initalize@_pin_config
   861   001C1E  EC7A  F009         	call	_gpio_pin_direction_initalize	;wreg free
   862   001C22  0100               	movlb	0	; () banked
   863   001C24  6FA3               	movwf	gpio_pin_initalize@ret& (0+255),b
   864                           
   865                           ;MCAL_layer/GPIO/hal_gpio.c: 169:         ret=gpio_pin_write_logic(_pin_config,_pin_conf
      +                          ig->logic);
   866   001C26  C0A2  F09A         	movff	gpio_pin_initalize@_pin_config,gpio_pin_write_logic@_pin_config
   867   001C2A  51A2               	movf	gpio_pin_initalize@_pin_config& (0+255),w,b
   868   001C2C  6ED9               	movwf	fsr2l,c
   869   001C2E  6ADA               	clrf	fsr2h,c
   870   001C30  0E00               	movlw	0
   871   001C32  BEDF               	btfsc	indf2,7,c
   872   001C34  0E01               	movlw	1
   873   001C36  6F9B               	movwf	gpio_pin_write_logic@logic& (0+255),b
   874   001C38  EC1E  F00A         	call	_gpio_pin_write_logic	;wreg free
   875   001C3C  0100               	movlb	0	; () banked
   876   001C3E  6FA3               	movwf	gpio_pin_initalize@ret& (0+255),b
   877   001C40                     l3913:
   878                           
   879                           ; BSR set to: 0
   880                           ;MCAL_layer/GPIO/hal_gpio.c: 171:     return ret;
   881   001C40  51A3               	movf	gpio_pin_initalize@ret& (0+255),w,b
   882   001C42                     
   883                           ; BSR set to: 0
   884   001C42  0012               	return		;funcret
   885   001C44                     __end_of_gpio_pin_initalize:
   886                           	callstack 0
   887                           
   888 ;; *************** function _gpio_pin_write_logic *****************
   889 ;; Defined at:
   890 ;;		line 82 in file "MCAL_layer/GPIO/hal_gpio.c"
   891 ;; Parameters:    Size  Location     Type
   892 ;;  _pin_config     1    0[BANK0 ] PTR const struct .
   893 ;;		 -> relay_turn_off@pin(1), relay_turn_on@pin(1), relay_initialize@pin(1), led_turn_off@pin_init(1), 
   894 ;;		 -> led_turn_on@pin_init(1), led_initalize@pin_init(1), dc_motor_stop@pin2(1), dc_motor_stop@pin1(1), 
   895 ;;		 -> dc_motor_move_left@pin2(1), dc_motor_move_left@pin1(1), dc_motor_move_right@pin2(1), dc_motor_move_right@pin1(1)
      +, 
   896 ;;		 -> dc_motor_initialize@pin2(1), dc_motor_initialize@pin1(1), 
   897 ;;  logic           1    1[BANK0 ] enum E2811
   898 ;; Auto vars:     Size  Location     Type
   899 ;;  status          1    7[BANK0 ] unsigned char 
   900 ;; Return value:  Size  Location     Type
   901 ;;                  1    wreg      unsigned char 
   902 ;; Registers used:
   903 ;;		wreg, fsr2l, fsr2h, status,2, status,0, prodl, prodh
   904 ;; Tracked objects:
   905 ;;		On entry : 0/0
   906 ;;		On exit  : 0/0
   907 ;;		Unchanged: 0/0
   908 ;; Data sizes:     COMRAM   BANK0   BANK1   BANK2   BANK3   BANK4   BANK5   BANK6   BANK7   BANK8   BANK9  BANK10  BANK1
      +1  BANK12  BANK13  BANK14  BANK15
   909 ;;      Params:         0       2       0       0       0       0       0       0       0       0       0       0       
      +0       0       0       0       0
   910 ;;      Locals:         0       1       0       0       0       0       0       0       0       0       0       0       
      +0       0       0       0       0
   911 ;;      Temps:          0       5       0       0       0       0       0       0       0       0       0       0       
      +0       0       0       0       0
   912 ;;      Totals:         0       8       0       0       0       0       0       0       0       0       0       0       
      +0       0       0       0       0
   913 ;;Total ram usage:        8 bytes
   914 ;; Hardware stack levels used: 1
   915 ;; Hardware stack levels required when called: 5
   916 ;; This function calls:
   917 ;;		Nothing
   918 ;; This function is called by:
   919 ;;		_gpio_pin_initalize
   920 ;;		_dc_motor_move_right
   921 ;;		_dc_motor_move_left
   922 ;;		_dc_motor_stop
   923 ;;		_keypad_get_value
   924 ;;		_lcd_4bit_send_command
   925 ;;		_lcd_4bit_send_data
   926 ;;		_lcd_8bit_send_command
   927 ;;		_lcd_8bit_send_data
   928 ;;		_lcd_send_4bits
   929 ;;		_lcd_4bit_send_enable
   930 ;;		_lcd_send_8bits
   931 ;;		_lcd_8bit_send_enable
   932 ;;		_relay_turn_on
   933 ;;		_relay_turn_off
   934 ;;		_ssd_write_number
   935 ;; This function uses a non-reentrant model
   936 ;;
   937                           
   938                           	psect	text3
   939   00143C                     __ptext3:
   940                           	callstack 0
   941   00143C                     _gpio_pin_write_logic:
   942                           	callstack 23
   943   00143C                     
   944                           ;MCAL_layer/GPIO/hal_gpio.c: 82: Std_ReturnType gpio_pin_write_logic(const pin_config_t*
      +                           _pin_config,logic_t logic);MCAL_layer/GPIO/hal_gpio.c: 83: {;MCAL_layer/GPIO/hal_gpio.c
      +                          : 84:     Std_ReturnType status=(Std_ReturnType)0x01;
   945   00143C  0E01               	movlw	1
   946   00143E  0100               	movlb	0	; () banked
   947   001440  6FA1               	movwf	gpio_pin_write_logic@status& (0+255),b
   948                           
   949                           ;MCAL_layer/GPIO/hal_gpio.c: 85:     if(((void*)0)==_pin_config || _pin_config->pin > 8 
      +                          -1 || _pin_config->port > 5 -1)
   950   001442  519A               	movf	gpio_pin_write_logic@_pin_config& (0+255),w,b
   951   001444  B4D8               	btfsc	status,2,c
   952   001446  EF27  F00A         	goto	u3381
   953   00144A  EF29  F00A         	goto	u3380
   954   00144E                     u3381:
   955   00144E  EF47  F00A         	goto	l3855
   956   001452                     u3380:
   957   001452                     
   958                           ; BSR set to: 0
   959   001452  519A               	movf	gpio_pin_write_logic@_pin_config& (0+255),w,b
   960   001454  6ED9               	movwf	fsr2l,c
   961   001456  6ADA               	clrf	fsr2h,c
   962   001458  30DF               	rrcf	223,w,c
   963   00145A  32E8               	rrcf	wreg,f,c
   964   00145C  32E8               	rrcf	wreg,f,c
   965   00145E  0B07               	andlw	7
   966   001460  6F9C               	movwf	??_gpio_pin_write_logic& (0+255),b
   967   001462  0E08               	movlw	8
   968   001464  619C               	cpfslt	??_gpio_pin_write_logic& (0+255),b
   969   001466  EF37  F00A         	goto	u3391
   970   00146A  EF39  F00A         	goto	u3390
   971   00146E                     u3391:
   972   00146E  EF47  F00A         	goto	l3855
   973   001472                     u3390:
   974   001472                     
   975                           ; BSR set to: 0
   976   001472  519A               	movf	gpio_pin_write_logic@_pin_config& (0+255),w,b
   977   001474  6ED9               	movwf	fsr2l,c
   978   001476  6ADA               	clrf	fsr2h,c
   979   001478  50DF               	movf	223,w,c
   980   00147A  0B07               	andlw	7
   981   00147C  6F9C               	movwf	??_gpio_pin_write_logic& (0+255),b
   982   00147E  0E04               	movlw	4
   983   001480  659C               	cpfsgt	??_gpio_pin_write_logic& (0+255),b
   984   001482  EF45  F00A         	goto	u3401
   985   001486  EF47  F00A         	goto	u3400
   986   00148A                     u3401:
   987   00148A  EFA0  F00A         	goto	l3865
   988   00148E                     u3400:
   989   00148E                     l3855:
   990                           
   991                           ; BSR set to: 0
   992                           ;MCAL_layer/GPIO/hal_gpio.c: 86:     {;MCAL_layer/GPIO/hal_gpio.c: 87:         status=(S
      +                          td_ReturnType)0x00;
   993   00148E  0E00               	movlw	0
   994   001490  6FA1               	movwf	gpio_pin_write_logic@status& (0+255),b
   995                           
   996                           ;MCAL_layer/GPIO/hal_gpio.c: 88:     }
   997   001492  EFB5  F00A         	goto	l3867
   998   001496                     l3857:
   999                           
  1000                           ; BSR set to: 0
  1001                           ;MCAL_layer/GPIO/hal_gpio.c: 93:             (*lat_registers[_pin_config->port]|=((uint8
      +                          )0x01<<_pin_config->pin));
  1002   001496  519A               	movf	gpio_pin_write_logic@_pin_config& (0+255),w,b
  1003   001498  6ED9               	movwf	fsr2l,c
  1004   00149A  6ADA               	clrf	fsr2h,c
  1005   00149C  30DF               	rrcf	223,w,c
  1006   00149E  32E8               	rrcf	wreg,f,c
  1007   0014A0  32E8               	rrcf	wreg,f,c
  1008   0014A2  0B07               	andlw	7
  1009   0014A4  6F9C               	movwf	??_gpio_pin_write_logic& (0+255),b
  1010   0014A6  0E01               	movlw	1
  1011   0014A8  6F9D               	movwf	(??_gpio_pin_write_logic+1)& (0+255),b
  1012   0014AA  2B9C               	incf	??_gpio_pin_write_logic& (0+255),f,b
  1013   0014AC  EF5A  F00A         	goto	u3414
  1014   0014B0                     u3415:
  1015   0014B0  90D8               	bcf	status,0,c
  1016   0014B2  379D               	rlcf	(??_gpio_pin_write_logic+1)& (0+255),f,b
  1017   0014B4                     u3414:
  1018   0014B4  2F9C               	decfsz	??_gpio_pin_write_logic& (0+255),f,b
  1019   0014B6  EF58  F00A         	goto	u3415
  1020   0014BA  0100               	movlb	0	; () banked
  1021   0014BC  519A               	movf	gpio_pin_write_logic@_pin_config& (0+255),w,b
  1022   0014BE  6ED9               	movwf	fsr2l,c
  1023   0014C0  6ADA               	clrf	fsr2h,c
  1024   0014C2  50DF               	movf	223,w,c
  1025   0014C4  0B07               	andlw	7
  1026   0014C6  0D02               	mullw	2
  1027   0014C8  50F3               	movf	243,w,c
  1028   0014CA  0F01               	addlw	low _lat_registers
  1029   0014CC  6ED9               	movwf	fsr2l,c
  1030   0014CE  6ADA               	clrf	fsr2h,c
  1031   0014D0  CFDE F09E          	movff	postinc2,??_gpio_pin_write_logic+2
  1032   0014D4  CFDD F09F          	movff	postdec2,??_gpio_pin_write_logic+3
  1033   0014D8  C09E  FFD9         	movff	??_gpio_pin_write_logic+2,fsr2l
  1034   0014DC  C09F  FFDA         	movff	??_gpio_pin_write_logic+3,fsr2h
  1035   0014E0  519D               	movf	(??_gpio_pin_write_logic+1)& (0+255),w,b
  1036   0014E2  12DF               	iorwf	indf2,f,c
  1037                           
  1038                           ;MCAL_layer/GPIO/hal_gpio.c: 94:             break;
  1039   0014E4  EFB5  F00A         	goto	l3867
  1040   0014E8                     l3859:
  1041                           
  1042                           ; BSR set to: 0
  1043                           ;MCAL_layer/GPIO/hal_gpio.c: 97:             (*lat_registers[_pin_config->port]&=~((uint
      +                          8)0x01<<_pin_config->pin));
  1044   0014E8  519A               	movf	gpio_pin_write_logic@_pin_config& (0+255),w,b
  1045   0014EA  6ED9               	movwf	fsr2l,c
  1046   0014EC  6ADA               	clrf	fsr2h,c
  1047   0014EE  30DF               	rrcf	223,w,c
  1048   0014F0  32E8               	rrcf	wreg,f,c
  1049   0014F2  32E8               	rrcf	wreg,f,c
  1050   0014F4  0B07               	andlw	7
  1051   0014F6  6F9C               	movwf	??_gpio_pin_write_logic& (0+255),b
  1052   0014F8  0E01               	movlw	1
  1053   0014FA  6F9D               	movwf	(??_gpio_pin_write_logic+1)& (0+255),b
  1054   0014FC  2B9C               	incf	??_gpio_pin_write_logic& (0+255),f,b
  1055   0014FE  EF83  F00A         	goto	u3424
  1056   001502                     u3425:
  1057   001502  90D8               	bcf	status,0,c
  1058   001504  379D               	rlcf	(??_gpio_pin_write_logic+1)& (0+255),f,b
  1059   001506                     u3424:
  1060   001506  2F9C               	decfsz	??_gpio_pin_write_logic& (0+255),f,b
  1061   001508  EF81  F00A         	goto	u3425
  1062   00150C  0100               	movlb	0	; () banked
  1063   00150E  519D               	movf	(??_gpio_pin_write_logic+1)& (0+255),w,b
  1064   001510  0AFF               	xorlw	255
  1065   001512  6F9E               	movwf	(??_gpio_pin_write_logic+2)& (0+255),b
  1066   001514  519A               	movf	gpio_pin_write_logic@_pin_config& (0+255),w,b
  1067   001516  6ED9               	movwf	fsr2l,c
  1068   001518  6ADA               	clrf	fsr2h,c
  1069   00151A  50DF               	movf	223,w,c
  1070   00151C  0B07               	andlw	7
  1071   00151E  0D02               	mullw	2
  1072   001520  50F3               	movf	243,w,c
  1073   001522  0F01               	addlw	low _lat_registers
  1074   001524  6ED9               	movwf	fsr2l,c
  1075   001526  6ADA               	clrf	fsr2h,c
  1076   001528  CFDE F09F          	movff	postinc2,??_gpio_pin_write_logic+3
  1077   00152C  CFDD F0A0          	movff	postdec2,??_gpio_pin_write_logic+4
  1078   001530  C09F  FFD9         	movff	??_gpio_pin_write_logic+3,fsr2l
  1079   001534  C0A0  FFDA         	movff	??_gpio_pin_write_logic+4,fsr2h
  1080   001538  519E               	movf	(??_gpio_pin_write_logic+2)& (0+255),w,b
  1081   00153A  16DF               	andwf	indf2,f,c
  1082                           
  1083                           ;MCAL_layer/GPIO/hal_gpio.c: 98:             break;
  1084   00153C  EFB5  F00A         	goto	l3867
  1085   001540                     l3865:
  1086                           
  1087                           ; BSR set to: 0
  1088   001540  519B               	movf	gpio_pin_write_logic@logic& (0+255),w,b
  1089   001542  6F9C               	movwf	??_gpio_pin_write_logic& (0+255),b
  1090   001544  6B9D               	clrf	(??_gpio_pin_write_logic+1)& (0+255),b
  1091                           
  1092                           ; Switch on 2 bytes has been partitioned into a top level switch of size 1, and 1 sub-sw
      +                          itches
  1093                           ; Switch size 1, requested type "simple"
  1094                           ; Number of cases is 1, Range of values is 0 to 0
  1095                           ; switch strategies available:
  1096                           ; Name         Instructions Cycles
  1097                           ; simple_byte            4     3 (average)
  1098                           ;	Chosen strategy is simple_byte
  1099   001546  519D               	movf	(??_gpio_pin_write_logic+1)& (0+255),w,b
  1100   001548  0A00               	xorlw	0	; case 0
  1101   00154A  B4D8               	btfsc	status,2,c
  1102   00154C  EFAA  F00A         	goto	l4921
  1103   001550  EF47  F00A         	goto	l3855
  1104   001554                     l4921:
  1105                           
  1106                           ; BSR set to: 0
  1107                           ; Switch size 1, requested type "simple"
  1108                           ; Number of cases is 2, Range of values is 0 to 1
  1109                           ; switch strategies available:
  1110                           ; Name         Instructions Cycles
  1111                           ; simple_byte            7     4 (average)
  1112                           ;	Chosen strategy is simple_byte
  1113   001554  519C               	movf	??_gpio_pin_write_logic& (0+255),w,b
  1114   001556  0A00               	xorlw	0	; case 0
  1115   001558  B4D8               	btfsc	status,2,c
  1116   00155A  EF74  F00A         	goto	l3859
  1117   00155E  0A01               	xorlw	1	; case 1
  1118   001560  B4D8               	btfsc	status,2,c
  1119   001562  EF4B  F00A         	goto	l3857
  1120   001566  EF47  F00A         	goto	l3855
  1121   00156A                     l3867:
  1122                           
  1123                           ; BSR set to: 0
  1124                           ;MCAL_layer/GPIO/hal_gpio.c: 104:     return status;
  1125   00156A  51A1               	movf	gpio_pin_write_logic@status& (0+255),w,b
  1126   00156C                     
  1127                           ; BSR set to: 0
  1128   00156C  0012               	return		;funcret
  1129   00156E                     __end_of_gpio_pin_write_logic:
  1130                           	callstack 0
  1131                           
  1132 ;; *************** function _interrupt_RBx_Init *****************
  1133 ;; Defined at:
  1134 ;;		line 88 in file "MCAL_layer/interrupt/mcal_external_interrupt.c"
  1135 ;; Parameters:    Size  Location     Type
  1136 ;;  int_obj         1    7[BANK0 ] PTR const struct .
  1137 ;;		 -> int3(6), int2(6), int1(6), int0(6), 
  1138 ;; Auto vars:     Size  Location     Type
  1139 ;;  ret             1   10[BANK0 ] unsigned char 
  1140 ;; Return value:  Size  Location     Type
  1141 ;;                  1    wreg      unsigned char 
  1142 ;; Registers used:
  1143 ;;		wreg, fsr2l, fsr2h, status,2, status,0, prodl, prodh, cstack
  1144 ;; Tracked objects:
  1145 ;;		On entry : 0/0
  1146 ;;		On exit  : 0/0
  1147 ;;		Unchanged: 0/0
  1148 ;; Data sizes:     COMRAM   BANK0   BANK1   BANK2   BANK3   BANK4   BANK5   BANK6   BANK7   BANK8   BANK9  BANK10  BANK1
      +1  BANK12  BANK13  BANK14  BANK15
  1149 ;;      Params:         0       1       0       0       0       0       0       0       0       0       0       0       
      +0       0       0       0       0
  1150 ;;      Locals:         0       1       0       0       0       0       0       0       0       0       0       0       
      +0       0       0       0       0
  1151 ;;      Temps:          0       2       0       0       0       0       0       0       0       0       0       0       
      +0       0       0       0       0
  1152 ;;      Totals:         0       4       0       0       0       0       0       0       0       0       0       0       
      +0       0       0       0       0
  1153 ;;Total ram usage:        4 bytes
  1154 ;; Hardware stack levels used: 1
  1155 ;; Hardware stack levels required when called: 6
  1156 ;; This function calls:
  1157 ;;		_gpio_pin_direction_initalize
  1158 ;; This function is called by:
  1159 ;;		_main
  1160 ;; This function uses a non-reentrant model
  1161 ;;
  1162                           
  1163                           	psect	text4
  1164   001690                     __ptext4:
  1165                           	callstack 0
  1166   001690                     _interrupt_RBx_Init:
  1167                           	callstack 24
  1168   001690                     
  1169                           ;MCAL_layer/interrupt/mcal_external_interrupt.c: 91:     if(((void*)0) == int_obj)
  1170   001690  0100               	movlb	0	; () banked
  1171   001692  51A1               	movf	interrupt_RBx_Init@int_obj& (0+255),w,b
  1172   001694  A4D8               	btfss	status,2,c
  1173   001696  EF4F  F00B         	goto	u3601
  1174   00169A  EF51  F00B         	goto	u3600
  1175   00169E                     u3601:
  1176   00169E  EF55  F00B         	goto	l550
  1177   0016A2                     u3600:
  1178   0016A2                     
  1179                           ; BSR set to: 0
  1180                           ;MCAL_layer/interrupt/mcal_external_interrupt.c: 92:     {;MCAL_layer/interrupt/mcal_ext
      +                          ernal_interrupt.c: 93:         ret=(Std_ReturnType)0x00;
  1181   0016A2  0E00               	movlw	0
  1182   0016A4  6FA4               	movwf	interrupt_RBx_Init@ret& (0+255),b
  1183                           
  1184                           ;MCAL_layer/interrupt/mcal_external_interrupt.c: 94:     }
  1185   0016A6  EFD0  F00B         	goto	l4101
  1186   0016AA                     l550:
  1187                           
  1188                           ; BSR set to: 0
  1189                           ;MCAL_layer/interrupt/mcal_external_interrupt.c: 96:     {;MCAL_layer/interrupt/mcal_ext
      +                          ernal_interrupt.c: 98:         (INTCONbits.RBIE=0);
  1190   0016AA  96F2               	bcf	242,3,c	;volatile
  1191                           
  1192                           ;MCAL_layer/interrupt/mcal_external_interrupt.c: 100:         (INTCONbits.RBIF=0);
  1193   0016AC  90F2               	bcf	242,0,c	;volatile
  1194                           
  1195                           ;MCAL_layer/interrupt/mcal_external_interrupt.c: 121:         (INTCONbits.GIE=1);
  1196   0016AE  8EF2               	bsf	242,7,c	;volatile
  1197                           
  1198                           ;MCAL_layer/interrupt/mcal_external_interrupt.c: 122:         (INTCONbits.PEIE=1);
  1199   0016B0  8CF2               	bsf	242,6,c	;volatile
  1200                           
  1201                           ;MCAL_layer/interrupt/mcal_external_interrupt.c: 124:         switch(int_obj->mcu_pin.pi
      +                          n)
  1202   0016B2  EFA3  F00B         	goto	l4095
  1203   0016B6                     l4077:
  1204                           
  1205                           ; BSR set to: 0
  1206                           ;MCAL_layer/interrupt/mcal_external_interrupt.c: 127:             RB4_InterruptHandler_L
      +                          OW=int_obj->pf;
  1207   0016B6  51A1               	movf	interrupt_RBx_Init@int_obj& (0+255),w,b
  1208   0016B8  6ED9               	movwf	fsr2l,c
  1209   0016BA  6ADA               	clrf	fsr2h,c
  1210   0016BC  CFDE F044          	movff	postinc2,_RB4_InterruptHandler_LOW
  1211   0016C0  CFDD F045          	movff	postdec2,_RB4_InterruptHandler_LOW+1
  1212   0016C4                     
  1213                           ; BSR set to: 0
  1214                           ;MCAL_layer/interrupt/mcal_external_interrupt.c: 128:             RB4_InterruptHandler_H
      +                          IGH=int_obj->pf2;
  1215   0016C4  51A1               	movf	interrupt_RBx_Init@int_obj& (0+255),w,b
  1216   0016C6  6ED9               	movwf	fsr2l,c
  1217   0016C8  6ADA               	clrf	fsr2h,c
  1218   0016CA  0E02               	movlw	2
  1219   0016CC  26D9               	addwf	fsr2l,f,c
  1220   0016CE  CFDE F03C          	movff	postinc2,_RB4_InterruptHandler_HIGH
  1221   0016D2  CFDD F03D          	movff	postdec2,_RB4_InterruptHandler_HIGH+1
  1222                           
  1223                           ;MCAL_layer/interrupt/mcal_external_interrupt.c: 129:             break;
  1224   0016D6  EFC8  F00B         	goto	l4097
  1225   0016DA                     l4081:
  1226                           
  1227                           ; BSR set to: 0
  1228                           ;MCAL_layer/interrupt/mcal_external_interrupt.c: 132:             RB5_InterruptHandler_L
      +                          OW=int_obj->pf;
  1229   0016DA  51A1               	movf	interrupt_RBx_Init@int_obj& (0+255),w,b
  1230   0016DC  6ED9               	movwf	fsr2l,c
  1231   0016DE  6ADA               	clrf	fsr2h,c
  1232   0016E0  CFDE F042          	movff	postinc2,_RB5_InterruptHandler_LOW
  1233   0016E4  CFDD F043          	movff	postdec2,_RB5_InterruptHandler_LOW+1
  1234   0016E8                     
  1235                           ; BSR set to: 0
  1236                           ;MCAL_layer/interrupt/mcal_external_interrupt.c: 133:             RB5_InterruptHandler_H
      +                          IGH=int_obj->pf2;
  1237   0016E8  51A1               	movf	interrupt_RBx_Init@int_obj& (0+255),w,b
  1238   0016EA  6ED9               	movwf	fsr2l,c
  1239   0016EC  6ADA               	clrf	fsr2h,c
  1240   0016EE  0E02               	movlw	2
  1241   0016F0  26D9               	addwf	fsr2l,f,c
  1242   0016F2  CFDE F03A          	movff	postinc2,_RB5_InterruptHandler_HIGH
  1243   0016F6  CFDD F03B          	movff	postdec2,_RB5_InterruptHandler_HIGH+1
  1244                           
  1245                           ;MCAL_layer/interrupt/mcal_external_interrupt.c: 134:             break;
  1246   0016FA  EFC8  F00B         	goto	l4097
  1247   0016FE                     l4085:
  1248                           
  1249                           ; BSR set to: 0
  1250                           ;MCAL_layer/interrupt/mcal_external_interrupt.c: 137:             RB6_InterruptHandler_L
      +                          OW=int_obj->pf;
  1251   0016FE  51A1               	movf	interrupt_RBx_Init@int_obj& (0+255),w,b
  1252   001700  6ED9               	movwf	fsr2l,c
  1253   001702  6ADA               	clrf	fsr2h,c
  1254   001704  CFDE F040          	movff	postinc2,_RB6_InterruptHandler_LOW
  1255   001708  CFDD F041          	movff	postdec2,_RB6_InterruptHandler_LOW+1
  1256   00170C                     
  1257                           ; BSR set to: 0
  1258                           ;MCAL_layer/interrupt/mcal_external_interrupt.c: 138:             RB6_InterruptHandler_H
      +                          IGH=int_obj->pf2;
  1259   00170C  51A1               	movf	interrupt_RBx_Init@int_obj& (0+255),w,b
  1260   00170E  6ED9               	movwf	fsr2l,c
  1261   001710  6ADA               	clrf	fsr2h,c
  1262   001712  0E02               	movlw	2
  1263   001714  26D9               	addwf	fsr2l,f,c
  1264   001716  CFDE F038          	movff	postinc2,_RB6_InterruptHandler_HIGH
  1265   00171A  CFDD F039          	movff	postdec2,_RB6_InterruptHandler_HIGH+1
  1266                           
  1267                           ;MCAL_layer/interrupt/mcal_external_interrupt.c: 139:             break;
  1268   00171E  EFC8  F00B         	goto	l4097
  1269   001722                     l4089:
  1270                           
  1271                           ; BSR set to: 0
  1272                           ;MCAL_layer/interrupt/mcal_external_interrupt.c: 142:             RB7_InterruptHandler_L
      +                          OW=int_obj->pf;
  1273   001722  51A1               	movf	interrupt_RBx_Init@int_obj& (0+255),w,b
  1274   001724  6ED9               	movwf	fsr2l,c
  1275   001726  6ADA               	clrf	fsr2h,c
  1276   001728  CFDE F03E          	movff	postinc2,_RB7_InterruptHandler_LOW
  1277   00172C  CFDD F03F          	movff	postdec2,_RB7_InterruptHandler_LOW+1
  1278   001730                     
  1279                           ; BSR set to: 0
  1280                           ;MCAL_layer/interrupt/mcal_external_interrupt.c: 143:             RB7_InterruptHandler_H
      +                          IGH=int_obj->pf2;
  1281   001730  51A1               	movf	interrupt_RBx_Init@int_obj& (0+255),w,b
  1282   001732  6ED9               	movwf	fsr2l,c
  1283   001734  6ADA               	clrf	fsr2h,c
  1284   001736  0E02               	movlw	2
  1285   001738  26D9               	addwf	fsr2l,f,c
  1286   00173A  CFDE F036          	movff	postinc2,_RB7_InterruptHandler_HIGH
  1287   00173E  CFDD F037          	movff	postdec2,_RB7_InterruptHandler_HIGH+1
  1288                           
  1289                           ;MCAL_layer/interrupt/mcal_external_interrupt.c: 144:             break;
  1290   001742  EFC8  F00B         	goto	l4097
  1291   001746                     l4095:
  1292                           
  1293                           ; BSR set to: 0
  1294   001746  51A1               	movf	interrupt_RBx_Init@int_obj& (0+255),w,b
  1295   001748  6ED9               	movwf	fsr2l,c
  1296   00174A  6ADA               	clrf	fsr2h,c
  1297   00174C  0E04               	movlw	4
  1298   00174E  26D9               	addwf	fsr2l,f,c
  1299   001750  30DF               	rrcf	223,w,c
  1300   001752  32E8               	rrcf	wreg,f,c
  1301   001754  32E8               	rrcf	wreg,f,c
  1302   001756  0B07               	andlw	7
  1303   001758  6FA2               	movwf	??_interrupt_RBx_Init& (0+255),b
  1304   00175A  6BA3               	clrf	(??_interrupt_RBx_Init+1)& (0+255),b
  1305                           
  1306                           ; Switch on 2 bytes has been partitioned into a top level switch of size 1, and 1 sub-sw
      +                          itches
  1307                           ; Switch size 1, requested type "simple"
  1308                           ; Number of cases is 1, Range of values is 0 to 0
  1309                           ; switch strategies available:
  1310                           ; Name         Instructions Cycles
  1311                           ; simple_byte            4     3 (average)
  1312                           ;	Chosen strategy is simple_byte
  1313   00175C  51A3               	movf	(??_interrupt_RBx_Init+1)& (0+255),w,b
  1314   00175E  0A00               	xorlw	0	; case 0
  1315   001760  B4D8               	btfsc	status,2,c
  1316   001762  EFB5  F00B         	goto	l4923
  1317   001766  EFC8  F00B         	goto	l4097
  1318   00176A                     l4923:
  1319                           
  1320                           ; BSR set to: 0
  1321                           ; Switch size 1, requested type "simple"
  1322                           ; Number of cases is 4, Range of values is 4 to 7
  1323                           ; switch strategies available:
  1324                           ; Name         Instructions Cycles
  1325                           ; simple_byte           13     7 (average)
  1326                           ;	Chosen strategy is simple_byte
  1327   00176A  51A2               	movf	??_interrupt_RBx_Init& (0+255),w,b
  1328   00176C  0A04               	xorlw	4	; case 4
  1329   00176E  B4D8               	btfsc	status,2,c
  1330   001770  EF5B  F00B         	goto	l4077
  1331   001774  0A01               	xorlw	1	; case 5
  1332   001776  B4D8               	btfsc	status,2,c
  1333   001778  EF6D  F00B         	goto	l4081
  1334   00177C  0A03               	xorlw	3	; case 6
  1335   00177E  B4D8               	btfsc	status,2,c
  1336   001780  EF7F  F00B         	goto	l4085
  1337   001784  0A01               	xorlw	1	; case 7
  1338   001786  B4D8               	btfsc	status,2,c
  1339   001788  EF91  F00B         	goto	l4089
  1340   00178C  EFC8  F00B         	goto	l4097
  1341   001790                     l4097:
  1342                           
  1343                           ; BSR set to: 0
  1344                           ;MCAL_layer/interrupt/mcal_external_interrupt.c: 147:         ret=gpio_pin_direction_ini
      +                          talize(&(int_obj->mcu_pin));
  1345   001790  51A1               	movf	interrupt_RBx_Init@int_obj& (0+255),w,b
  1346   001792  0F04               	addlw	4
  1347   001794  6F9A               	movwf	gpio_pin_direction_initalize@_pin_config& (0+255),b
  1348   001796  EC7A  F009         	call	_gpio_pin_direction_initalize	;wreg free
  1349   00179A  0100               	movlb	0	; () banked
  1350   00179C  6FA4               	movwf	interrupt_RBx_Init@ret& (0+255),b
  1351   00179E                     
  1352                           ; BSR set to: 0
  1353                           ;MCAL_layer/interrupt/mcal_external_interrupt.c: 150:         (INTCONbits.RBIE=1);
  1354   00179E  86F2               	bsf	242,3,c	;volatile
  1355   0017A0                     l4101:
  1356                           
  1357                           ; BSR set to: 0
  1358                           ;MCAL_layer/interrupt/mcal_external_interrupt.c: 153:     return ret;
  1359   0017A0  51A4               	movf	interrupt_RBx_Init@ret& (0+255),w,b
  1360   0017A2                     
  1361                           ; BSR set to: 0
  1362   0017A2  0012               	return		;funcret
  1363   0017A4                     __end_of_interrupt_RBx_Init:
  1364                           	callstack 0
  1365                           
  1366 ;; *************** function _gpio_pin_direction_initalize *****************
  1367 ;; Defined at:
  1368 ;;		line 28 in file "MCAL_layer/GPIO/hal_gpio.c"
  1369 ;; Parameters:    Size  Location     Type
  1370 ;;  _pin_config     1    0[BANK0 ] PTR const struct .
  1371 ;;		 -> int3(6), int2(6), int1(6), int0(6), 
  1372 ;;		 -> relay_initialize@pin(1), led_initalize@pin_init(1), dc_motor_initialize@pin2(1), dc_motor_initialize@pin1(1), 
  1373 ;; Auto vars:     Size  Location     Type
  1374 ;;  status          1    6[BANK0 ] unsigned char 
  1375 ;; Return value:  Size  Location     Type
  1376 ;;                  1    wreg      unsigned char 
  1377 ;; Registers used:
  1378 ;;		wreg, fsr2l, fsr2h, status,2, status,0, prodl, prodh
  1379 ;; Tracked objects:
  1380 ;;		On entry : 0/0
  1381 ;;		On exit  : 0/0
  1382 ;;		Unchanged: 0/0
  1383 ;; Data sizes:     COMRAM   BANK0   BANK1   BANK2   BANK3   BANK4   BANK5   BANK6   BANK7   BANK8   BANK9  BANK10  BANK1
      +1  BANK12  BANK13  BANK14  BANK15
  1384 ;;      Params:         0       1       0       0       0       0       0       0       0       0       0       0       
      +0       0       0       0       0
  1385 ;;      Locals:         0       1       0       0       0       0       0       0       0       0       0       0       
      +0       0       0       0       0
  1386 ;;      Temps:          0       5       0       0       0       0       0       0       0       0       0       0       
      +0       0       0       0       0
  1387 ;;      Totals:         0       7       0       0       0       0       0       0       0       0       0       0       
      +0       0       0       0       0
  1388 ;;Total ram usage:        7 bytes
  1389 ;; Hardware stack levels used: 1
  1390 ;; Hardware stack levels required when called: 5
  1391 ;; This function calls:
  1392 ;;		Nothing
  1393 ;; This function is called by:
  1394 ;;		_gpio_pin_initalize
  1395 ;;		_interrupt_RBx_Init
  1396 ;;		_button_initialize
  1397 ;;		_keypad_initalize
  1398 ;;		_Interrupt_INTx_Pin_Init
  1399 ;; This function uses a non-reentrant model
  1400 ;;
  1401                           
  1402                           	psect	text5
  1403   0012F4                     __ptext5:
  1404                           	callstack 0
  1405   0012F4                     _gpio_pin_direction_initalize:
  1406                           	callstack 23
  1407   0012F4                     
  1408                           ;MCAL_layer/GPIO/hal_gpio.c: 28: Std_ReturnType gpio_pin_direction_initalize(const pin_c
      +                          onfig_t* _pin_config);MCAL_layer/GPIO/hal_gpio.c: 29: {;MCAL_layer/GPIO/hal_gpio.c: 30: 
      +                              Std_ReturnType status=(Std_ReturnType)0x01;
  1409   0012F4  0E01               	movlw	1
  1410   0012F6  0100               	movlb	0	; () banked
  1411   0012F8  6FA0               	movwf	gpio_pin_direction_initalize@status& (0+255),b
  1412                           
  1413                           ;MCAL_layer/GPIO/hal_gpio.c: 32:     if(((void*)0)==_pin_config || _pin_config->pin > 8 
      +                          -1 || _pin_config->port > 5 -1)
  1414   0012FA  519A               	movf	gpio_pin_direction_initalize@_pin_config& (0+255),w,b
  1415   0012FC  B4D8               	btfsc	status,2,c
  1416   0012FE  EF83  F009         	goto	u3311
  1417   001302  EF85  F009         	goto	u3310
  1418   001306                     u3311:
  1419   001306  EFA3  F009         	goto	l3829
  1420   00130A                     u3310:
  1421   00130A                     
  1422                           ; BSR set to: 0
  1423   00130A  519A               	movf	gpio_pin_direction_initalize@_pin_config& (0+255),w,b
  1424   00130C  6ED9               	movwf	fsr2l,c
  1425   00130E  6ADA               	clrf	fsr2h,c
  1426   001310  30DF               	rrcf	223,w,c
  1427   001312  32E8               	rrcf	wreg,f,c
  1428   001314  32E8               	rrcf	wreg,f,c
  1429   001316  0B07               	andlw	7
  1430   001318  6F9B               	movwf	??_gpio_pin_direction_initalize& (0+255),b
  1431   00131A  0E08               	movlw	8
  1432   00131C  619B               	cpfslt	??_gpio_pin_direction_initalize& (0+255),b
  1433   00131E  EF93  F009         	goto	u3321
  1434   001322  EF95  F009         	goto	u3320
  1435   001326                     u3321:
  1436   001326  EFA3  F009         	goto	l3829
  1437   00132A                     u3320:
  1438   00132A                     
  1439                           ; BSR set to: 0
  1440   00132A  519A               	movf	gpio_pin_direction_initalize@_pin_config& (0+255),w,b
  1441   00132C  6ED9               	movwf	fsr2l,c
  1442   00132E  6ADA               	clrf	fsr2h,c
  1443   001330  50DF               	movf	223,w,c
  1444   001332  0B07               	andlw	7
  1445   001334  6F9B               	movwf	??_gpio_pin_direction_initalize& (0+255),b
  1446   001336  0E04               	movlw	4
  1447   001338  659B               	cpfsgt	??_gpio_pin_direction_initalize& (0+255),b
  1448   00133A  EFA1  F009         	goto	u3331
  1449   00133E  EFA3  F009         	goto	u3330
  1450   001342                     u3331:
  1451   001342  EFFC  F009         	goto	l3839
  1452   001346                     u3330:
  1453   001346                     l3829:
  1454                           
  1455                           ; BSR set to: 0
  1456                           ;MCAL_layer/GPIO/hal_gpio.c: 33:     {;MCAL_layer/GPIO/hal_gpio.c: 34:         status =(
      +                          Std_ReturnType)0x00;
  1457   001346  0E00               	movlw	0
  1458   001348  6FA0               	movwf	gpio_pin_direction_initalize@status& (0+255),b
  1459                           
  1460                           ;MCAL_layer/GPIO/hal_gpio.c: 35:     }
  1461   00134A  EF1C  F00A         	goto	l3841
  1462   00134E                     l3831:
  1463                           
  1464                           ; BSR set to: 0
  1465   00134E  519A               	movf	gpio_pin_direction_initalize@_pin_config& (0+255),w,b
  1466   001350  6ED9               	movwf	fsr2l,c
  1467   001352  6ADA               	clrf	fsr2h,c
  1468   001354  30DF               	rrcf	223,w,c
  1469   001356  32E8               	rrcf	wreg,f,c
  1470   001358  32E8               	rrcf	wreg,f,c
  1471   00135A  0B07               	andlw	7
  1472   00135C  6F9B               	movwf	??_gpio_pin_direction_initalize& (0+255),b
  1473   00135E  0E01               	movlw	1
  1474   001360  6F9C               	movwf	(??_gpio_pin_direction_initalize+1)& (0+255),b
  1475   001362  2B9B               	incf	??_gpio_pin_direction_initalize& (0+255),f,b
  1476   001364  EFB6  F009         	goto	u3344
  1477   001368                     u3345:
  1478   001368  90D8               	bcf	status,0,c
  1479   00136A  379C               	rlcf	(??_gpio_pin_direction_initalize+1)& (0+255),f,b
  1480   00136C                     u3344:
  1481   00136C  2F9B               	decfsz	??_gpio_pin_direction_initalize& (0+255),f,b
  1482   00136E  EFB4  F009         	goto	u3345
  1483   001372  0100               	movlb	0	; () banked
  1484   001374  519C               	movf	(??_gpio_pin_direction_initalize+1)& (0+255),w,b
  1485   001376  0AFF               	xorlw	255
  1486   001378  6F9D               	movwf	(??_gpio_pin_direction_initalize+2)& (0+255),b
  1487   00137A  519A               	movf	gpio_pin_direction_initalize@_pin_config& (0+255),w,b
  1488   00137C  6ED9               	movwf	fsr2l,c
  1489   00137E  6ADA               	clrf	fsr2h,c
  1490   001380  50DF               	movf	223,w,c
  1491   001382  0B07               	andlw	7
  1492   001384  0D02               	mullw	2
  1493   001386  50F3               	movf	243,w,c
  1494   001388  0F0B               	addlw	low _tris_registers
  1495   00138A  6ED9               	movwf	fsr2l,c
  1496   00138C  6ADA               	clrf	fsr2h,c
  1497   00138E  CFDE F09E          	movff	postinc2,??_gpio_pin_direction_initalize+3
  1498   001392  CFDD F09F          	movff	postdec2,??_gpio_pin_direction_initalize+4
  1499   001396  C09E  FFD9         	movff	??_gpio_pin_direction_initalize+3,fsr2l
  1500   00139A  C09F  FFDA         	movff	??_gpio_pin_direction_initalize+4,fsr2h
  1501   00139E  519D               	movf	(??_gpio_pin_direction_initalize+2)& (0+255),w,b
  1502   0013A0  16DF               	andwf	indf2,f,c
  1503                           
  1504                           ;MCAL_layer/GPIO/hal_gpio.c: 40:             break;
  1505   0013A2  EF1C  F00A         	goto	l3841
  1506   0013A6                     l3833:
  1507                           
  1508                           ; BSR set to: 0
  1509   0013A6  519A               	movf	gpio_pin_direction_initalize@_pin_config& (0+255),w,b
  1510   0013A8  6ED9               	movwf	fsr2l,c
  1511   0013AA  6ADA               	clrf	fsr2h,c
  1512   0013AC  30DF               	rrcf	223,w,c
  1513   0013AE  32E8               	rrcf	wreg,f,c
  1514   0013B0  32E8               	rrcf	wreg,f,c
  1515   0013B2  0B07               	andlw	7
  1516   0013B4  6F9B               	movwf	??_gpio_pin_direction_initalize& (0+255),b
  1517   0013B6  0E01               	movlw	1
  1518   0013B8  6F9C               	movwf	(??_gpio_pin_direction_initalize+1)& (0+255),b
  1519   0013BA  2B9B               	incf	??_gpio_pin_direction_initalize& (0+255),f,b
  1520   0013BC  EFE2  F009         	goto	u3354
  1521   0013C0                     u3355:
  1522   0013C0  90D8               	bcf	status,0,c
  1523   0013C2  379C               	rlcf	(??_gpio_pin_direction_initalize+1)& (0+255),f,b
  1524   0013C4                     u3354:
  1525   0013C4  2F9B               	decfsz	??_gpio_pin_direction_initalize& (0+255),f,b
  1526   0013C6  EFE0  F009         	goto	u3355
  1527   0013CA  0100               	movlb	0	; () banked
  1528   0013CC  519A               	movf	gpio_pin_direction_initalize@_pin_config& (0+255),w,b
  1529   0013CE  6ED9               	movwf	fsr2l,c
  1530   0013D0  6ADA               	clrf	fsr2h,c
  1531   0013D2  50DF               	movf	223,w,c
  1532   0013D4  0B07               	andlw	7
  1533   0013D6  0D02               	mullw	2
  1534   0013D8  50F3               	movf	243,w,c
  1535   0013DA  0F0B               	addlw	low _tris_registers
  1536   0013DC  6ED9               	movwf	fsr2l,c
  1537   0013DE  6ADA               	clrf	fsr2h,c
  1538   0013E0  CFDE F09D          	movff	postinc2,??_gpio_pin_direction_initalize+2
  1539   0013E4  CFDD F09E          	movff	postdec2,??_gpio_pin_direction_initalize+3
  1540   0013E8  C09D  FFD9         	movff	??_gpio_pin_direction_initalize+2,fsr2l
  1541   0013EC  C09E  FFDA         	movff	??_gpio_pin_direction_initalize+3,fsr2h
  1542   0013F0  519C               	movf	(??_gpio_pin_direction_initalize+1)& (0+255),w,b
  1543   0013F2  12DF               	iorwf	indf2,f,c
  1544                           
  1545                           ;MCAL_layer/GPIO/hal_gpio.c: 42:             break;
  1546   0013F4  EF1C  F00A         	goto	l3841
  1547   0013F8                     l3839:
  1548                           
  1549                           ; BSR set to: 0
  1550   0013F8  519A               	movf	gpio_pin_direction_initalize@_pin_config& (0+255),w,b
  1551   0013FA  6ED9               	movwf	fsr2l,c
  1552   0013FC  6ADA               	clrf	fsr2h,c
  1553   0013FE  BCDF               	btfsc	indf2,6,c
  1554   001400  EF04  F00A         	goto	u3361
  1555   001404  EF07  F00A         	goto	u3360
  1556   001408                     u3361:
  1557   001408  0E01               	movlw	1
  1558   00140A  EF08  F00A         	goto	u3370
  1559   00140E                     u3360:
  1560   00140E  0E00               	movlw	0
  1561   001410                     u3370:
  1562   001410  6F9B               	movwf	??_gpio_pin_direction_initalize& (0+255),b
  1563   001412  6B9C               	clrf	(??_gpio_pin_direction_initalize+1)& (0+255),b
  1564                           
  1565                           ; Switch on 2 bytes has been partitioned into a top level switch of size 1, and 1 sub-sw
      +                          itches
  1566                           ; Switch size 1, requested type "simple"
  1567                           ; Number of cases is 1, Range of values is 0 to 0
  1568                           ; switch strategies available:
  1569                           ; Name         Instructions Cycles
  1570                           ; simple_byte            4     3 (average)
  1571                           ;	Chosen strategy is simple_byte
  1572   001414  519C               	movf	(??_gpio_pin_direction_initalize+1)& (0+255),w,b
  1573   001416  0A00               	xorlw	0	; case 0
  1574   001418  B4D8               	btfsc	status,2,c
  1575   00141A  EF11  F00A         	goto	l4925
  1576   00141E  EFA3  F009         	goto	l3829
  1577   001422                     l4925:
  1578                           
  1579                           ; BSR set to: 0
  1580                           ; Switch size 1, requested type "simple"
  1581                           ; Number of cases is 2, Range of values is 0 to 1
  1582                           ; switch strategies available:
  1583                           ; Name         Instructions Cycles
  1584                           ; simple_byte            7     4 (average)
  1585                           ;	Chosen strategy is simple_byte
  1586   001422  519B               	movf	??_gpio_pin_direction_initalize& (0+255),w,b
  1587   001424  0A00               	xorlw	0	; case 0
  1588   001426  B4D8               	btfsc	status,2,c
  1589   001428  EFA7  F009         	goto	l3831
  1590   00142C  0A01               	xorlw	1	; case 1
  1591   00142E  B4D8               	btfsc	status,2,c
  1592   001430  EFD3  F009         	goto	l3833
  1593   001434  EFA3  F009         	goto	l3829
  1594   001438                     l3841:
  1595                           
  1596                           ; BSR set to: 0
  1597                           ;MCAL_layer/GPIO/hal_gpio.c: 47:     return status;
  1598   001438  51A0               	movf	gpio_pin_direction_initalize@status& (0+255),w,b
  1599   00143A                     
  1600                           ; BSR set to: 0
  1601   00143A  0012               	return		;funcret
  1602   00143C                     __end_of_gpio_pin_direction_initalize:
  1603                           	callstack 0
  1604                           
  1605 ;; *************** function _InterruptManagerHigh *****************
  1606 ;; Defined at:
  1607 ;;		line 45 in file "MCAL_layer/interrupt/mcal_interrupt_manager.c"
  1608 ;; Parameters:    Size  Location     Type
  1609 ;;		None
  1610 ;; Auto vars:     Size  Location     Type
  1611 ;;		None
  1612 ;; Return value:  Size  Location     Type
  1613 ;;                  1    wreg      void 
  1614 ;; Registers used:
  1615 ;;		wreg, fsr2l, fsr2h, status,2, status,0, pcl, pclath, pclatu, tosl, prodl, prodh, cstack
  1616 ;; Tracked objects:
  1617 ;;		On entry : 0/0
  1618 ;;		On exit  : 0/0
  1619 ;;		Unchanged: 0/0
  1620 ;; Data sizes:     COMRAM   BANK0   BANK1   BANK2   BANK3   BANK4   BANK5   BANK6   BANK7   BANK8   BANK9  BANK10  BANK1
      +1  BANK12  BANK13  BANK14  BANK15
  1621 ;;      Params:         0       0       0       0       0       0       0       0       0       0       0       0       
      +0       0       0       0       0
  1622 ;;      Locals:         0       0       0       0       0       0       0       0       0       0       0       0       
      +0       0       0       0       0
  1623 ;;      Temps:          6       0       0       0       0       0       0       0       0       0       0       0       
      +0       0       0       0       0
  1624 ;;      Totals:         6       0       0       0       0       0       0       0       0       0       0       0       
      +0       0       0       0       0
  1625 ;;Total ram usage:        6 bytes
  1626 ;; Hardware stack levels used: 1
  1627 ;; Hardware stack levels required when called: 4
  1628 ;; This function calls:
  1629 ;;		_EXTI0_ISR
  1630 ;;		_EXTI1_ISR
  1631 ;;		_EXTI2_ISR
  1632 ;;		_RB4_ISR
  1633 ;;		_RB5_ISR
  1634 ;;		_RB6_ISR
  1635 ;;		_RB7_ISR
  1636 ;; This function is called by:
  1637 ;;		Interrupt level 2
  1638 ;; This function uses a non-reentrant model
  1639 ;;
  1640                           
  1641                           	psect	intcode
  1642   000008                     __pintcode:
  1643                           	callstack 0
  1644   000008                     _InterruptManagerHigh:
  1645                           	callstack 23
  1646                           
  1647                           ; BSR set to: 0
  1648                           ;incstack = 0
  1649   000008  826F               	bsf	int$flags,1,c	;set compiler interrupt flag (level 2)
  1650   00000A  ED09  F008         	call	int_func,f	;refresh shadow registers
  1651                           
  1652                           	psect	intcode_body
  1653   001012                     __pintcode_body:
  1654                           	callstack 23
  1655   001012                     int_func:
  1656                           	callstack 23
  1657   001012  0006               	pop		; remove dummy address from shadow register refresh
  1658   001014  CFFA F069          	movff	pclath,??_InterruptManagerHigh
  1659   001018  CFFB F06A          	movff	pclatu,??_InterruptManagerHigh+1
  1660   00101C  CFD9 F06B          	movff	fsr2l,??_InterruptManagerHigh+2
  1661   001020  CFDA F06C          	movff	fsr2h,??_InterruptManagerHigh+3
  1662   001024  CFF3 F06D          	movff	prodl,??_InterruptManagerHigh+4
  1663   001028  CFF4 F06E          	movff	prodh,??_InterruptManagerHigh+5
  1664   00102C                     
  1665                           ;MCAL_layer/interrupt/mcal_interrupt_manager.c: 47:     if ((INTCONbits.INT0IE == 1U) &&
      +                           (INTCONbits.INT0IF == 1U))
  1666   00102C  A8F2               	btfss	242,4,c	;volatile
  1667   00102E  EF1B  F008         	goto	i2u425_41
  1668   001032  EF1D  F008         	goto	i2u425_40
  1669   001036                     i2u425_41:
  1670   001036  EF28  F008         	goto	i2l730
  1671   00103A                     i2u425_40:
  1672   00103A  A2F2               	btfss	242,1,c	;volatile
  1673   00103C  EF22  F008         	goto	i2u426_41
  1674   001040  EF24  F008         	goto	i2u426_40
  1675   001044                     i2u426_41:
  1676   001044  EF28  F008         	goto	i2l730
  1677   001048                     i2u426_40:
  1678   001048                     
  1679                           ;MCAL_layer/interrupt/mcal_interrupt_manager.c: 48:     {;MCAL_layer/interrupt/mcal_inte
      +                          rrupt_manager.c: 49:         EXTI0_ISR();
  1680   001048  EC7E  F00E         	call	_EXTI0_ISR	;wreg free
  1681                           
  1682                           ;MCAL_layer/interrupt/mcal_interrupt_manager.c: 50:     }
  1683   00104C  EF6C  F009         	goto	i2l751
  1684   001050                     i2l730:
  1685   001050  A6F0               	btfss	240,3,c	;volatile
  1686   001052  EF2D  F008         	goto	i2u427_41
  1687   001056  EF2F  F008         	goto	i2u427_40
  1688   00105A                     i2u427_41:
  1689   00105A  EF3A  F008         	goto	i2l732
  1690   00105E                     i2u427_40:
  1691   00105E  A0F0               	btfss	240,0,c	;volatile
  1692   001060  EF34  F008         	goto	i2u428_41
  1693   001064  EF36  F008         	goto	i2u428_40
  1694   001068                     i2u428_41:
  1695   001068  EF3A  F008         	goto	i2l732
  1696   00106C                     i2u428_40:
  1697   00106C                     
  1698                           ;MCAL_layer/interrupt/mcal_interrupt_manager.c: 52:     {;MCAL_layer/interrupt/mcal_inte
      +                          rrupt_manager.c: 53:         EXTI1_ISR();
  1699   00106C  EC7C  F00E         	call	_EXTI1_ISR	;wreg free
  1700                           
  1701                           ;MCAL_layer/interrupt/mcal_interrupt_manager.c: 54:     }
  1702   001070  EF6C  F009         	goto	i2l751
  1703   001074                     i2l732:
  1704   001074  A8F0               	btfss	240,4,c	;volatile
  1705   001076  EF3F  F008         	goto	i2u429_41
  1706   00107A  EF41  F008         	goto	i2u429_40
  1707   00107E                     i2u429_41:
  1708   00107E  EF4C  F008         	goto	i2l734
  1709   001082                     i2u429_40:
  1710   001082  A2F0               	btfss	240,1,c	;volatile
  1711   001084  EF46  F008         	goto	i2u430_41
  1712   001088  EF48  F008         	goto	i2u430_40
  1713   00108C                     i2u430_41:
  1714   00108C  EF4C  F008         	goto	i2l734
  1715   001090                     i2u430_40:
  1716   001090                     
  1717                           ;MCAL_layer/interrupt/mcal_interrupt_manager.c: 56:     {;MCAL_layer/interrupt/mcal_inte
      +                          rrupt_manager.c: 57:         EXTI2_ISR();
  1718   001090  EC7A  F00E         	call	_EXTI2_ISR	;wreg free
  1719                           
  1720                           ;MCAL_layer/interrupt/mcal_interrupt_manager.c: 58:     }
  1721   001094  EF6C  F009         	goto	i2l751
  1722   001098                     i2l734:
  1723   001098  A6F2               	btfss	242,3,c	;volatile
  1724   00109A  EF51  F008         	goto	i2u431_41
  1725   00109E  EF53  F008         	goto	i2u431_40
  1726   0010A2                     i2u431_41:
  1727   0010A2  EF70  F008         	goto	i2l736
  1728   0010A6                     i2u431_40:
  1729   0010A6  A0F2               	btfss	242,0,c	;volatile
  1730   0010A8  EF58  F008         	goto	i2u432_41
  1731   0010AC  EF5A  F008         	goto	i2u432_40
  1732   0010B0                     i2u432_41:
  1733   0010B0  EF70  F008         	goto	i2l736
  1734   0010B4                     i2u432_40:
  1735   0010B4  A881               	btfss	129,4,c	;volatile
  1736   0010B6  EF5F  F008         	goto	i2u433_41
  1737   0010BA  EF61  F008         	goto	i2u433_40
  1738   0010BE                     i2u433_41:
  1739   0010BE  EF70  F008         	goto	i2l736
  1740   0010C2                     i2u433_40:
  1741   0010C2  0418               	decf	_RB4_enter^0,w,c	;volatile
  1742   0010C4  A4D8               	btfss	status,2,c
  1743   0010C6  EF67  F008         	goto	i2u434_41
  1744   0010CA  EF69  F008         	goto	i2u434_40
  1745   0010CE                     i2u434_41:
  1746   0010CE  EF70  F008         	goto	i2l736
  1747   0010D2                     i2u434_40:
  1748   0010D2                     
  1749                           ;MCAL_layer/interrupt/mcal_interrupt_manager.c: 62:     {;MCAL_layer/interrupt/mcal_inte
      +                          rrupt_manager.c: 63:         RB4_ISR(1);
  1750   0010D2  0E01               	movlw	1
  1751   0010D4  ECAA  F00C         	call	_RB4_ISR
  1752   0010D8                     
  1753                           ;MCAL_layer/interrupt/mcal_interrupt_manager.c: 64:         RB4_enter = 0;
  1754   0010D8  0E00               	movlw	0
  1755   0010DA  6E18               	movwf	_RB4_enter^0,c	;volatile
  1756                           
  1757                           ;MCAL_layer/interrupt/mcal_interrupt_manager.c: 65:     }
  1758   0010DC  EF6C  F009         	goto	i2l751
  1759   0010E0                     i2l736:
  1760   0010E0  A6F2               	btfss	242,3,c	;volatile
  1761   0010E2  EF75  F008         	goto	i2u435_41
  1762   0010E6  EF77  F008         	goto	i2u435_40
  1763   0010EA                     i2u435_41:
  1764   0010EA  EF94  F008         	goto	i2l738
  1765   0010EE                     i2u435_40:
  1766   0010EE  A0F2               	btfss	242,0,c	;volatile
  1767   0010F0  EF7C  F008         	goto	i2u436_41
  1768   0010F4  EF7E  F008         	goto	i2u436_40
  1769   0010F8                     i2u436_41:
  1770   0010F8  EF94  F008         	goto	i2l738
  1771   0010FC                     i2u436_40:
  1772   0010FC  B881               	btfsc	129,4,c	;volatile
  1773   0010FE  EF83  F008         	goto	i2u437_41
  1774   001102  EF85  F008         	goto	i2u437_40
  1775   001106                     i2u437_41:
  1776   001106  EF94  F008         	goto	i2l738
  1777   00110A                     i2u437_40:
  1778   00110A  5018               	movf	_RB4_enter^0,w,c	;volatile
  1779   00110C  A4D8               	btfss	status,2,c
  1780   00110E  EF8B  F008         	goto	i2u438_41
  1781   001112  EF8D  F008         	goto	i2u438_40
  1782   001116                     i2u438_41:
  1783   001116  EF94  F008         	goto	i2l738
  1784   00111A                     i2u438_40:
  1785   00111A                     
  1786                           ;MCAL_layer/interrupt/mcal_interrupt_manager.c: 67:     {;MCAL_layer/interrupt/mcal_inte
      +                          rrupt_manager.c: 68:         RB4_ISR(0);
  1787   00111A  0E00               	movlw	0
  1788   00111C  ECAA  F00C         	call	_RB4_ISR
  1789   001120                     
  1790                           ;MCAL_layer/interrupt/mcal_interrupt_manager.c: 69:         RB4_enter = 1;
  1791   001120  0E01               	movlw	1
  1792   001122  6E18               	movwf	_RB4_enter^0,c	;volatile
  1793                           
  1794                           ;MCAL_layer/interrupt/mcal_interrupt_manager.c: 70:     }
  1795   001124  EF6C  F009         	goto	i2l751
  1796   001128                     i2l738:
  1797   001128  A6F2               	btfss	242,3,c	;volatile
  1798   00112A  EF99  F008         	goto	i2u439_41
  1799   00112E  EF9B  F008         	goto	i2u439_40
  1800   001132                     i2u439_41:
  1801   001132  EFB8  F008         	goto	i2l740
  1802   001136                     i2u439_40:
  1803   001136  A0F2               	btfss	242,0,c	;volatile
  1804   001138  EFA0  F008         	goto	i2u440_41
  1805   00113C  EFA2  F008         	goto	i2u440_40
  1806   001140                     i2u440_41:
  1807   001140  EFB8  F008         	goto	i2l740
  1808   001144                     i2u440_40:
  1809   001144  AA81               	btfss	129,5,c	;volatile
  1810   001146  EFA7  F008         	goto	i2u441_41
  1811   00114A  EFA9  F008         	goto	i2u441_40
  1812   00114E                     i2u441_41:
  1813   00114E  EFB8  F008         	goto	i2l740
  1814   001152                     i2u441_40:
  1815   001152  0417               	decf	_RB5_enter^0,w,c	;volatile
  1816   001154  A4D8               	btfss	status,2,c
  1817   001156  EFAF  F008         	goto	i2u442_41
  1818   00115A  EFB1  F008         	goto	i2u442_40
  1819   00115E                     i2u442_41:
  1820   00115E  EFB8  F008         	goto	i2l740
  1821   001162                     i2u442_40:
  1822   001162                     
  1823                           ;MCAL_layer/interrupt/mcal_interrupt_manager.c: 73:     {;MCAL_layer/interrupt/mcal_inte
      +                          rrupt_manager.c: 74:         RB5_ISR(1);
  1824   001162  0E01               	movlw	1
  1825   001164  EC62  F00C         	call	_RB5_ISR
  1826   001168                     
  1827                           ;MCAL_layer/interrupt/mcal_interrupt_manager.c: 75:         RB5_enter = 0;
  1828   001168  0E00               	movlw	0
  1829   00116A  6E17               	movwf	_RB5_enter^0,c	;volatile
  1830                           
  1831                           ;MCAL_layer/interrupt/mcal_interrupt_manager.c: 76:     }
  1832   00116C  EF6C  F009         	goto	i2l751
  1833   001170                     i2l740:
  1834   001170  A6F2               	btfss	242,3,c	;volatile
  1835   001172  EFBD  F008         	goto	i2u443_41
  1836   001176  EFBF  F008         	goto	i2u443_40
  1837   00117A                     i2u443_41:
  1838   00117A  EFDC  F008         	goto	i2l742
  1839   00117E                     i2u443_40:
  1840   00117E  A0F2               	btfss	242,0,c	;volatile
  1841   001180  EFC4  F008         	goto	i2u444_41
  1842   001184  EFC6  F008         	goto	i2u444_40
  1843   001188                     i2u444_41:
  1844   001188  EFDC  F008         	goto	i2l742
  1845   00118C                     i2u444_40:
  1846   00118C  BA81               	btfsc	129,5,c	;volatile
  1847   00118E  EFCB  F008         	goto	i2u445_41
  1848   001192  EFCD  F008         	goto	i2u445_40
  1849   001196                     i2u445_41:
  1850   001196  EFDC  F008         	goto	i2l742
  1851   00119A                     i2u445_40:
  1852   00119A  5017               	movf	_RB5_enter^0,w,c	;volatile
  1853   00119C  A4D8               	btfss	status,2,c
  1854   00119E  EFD3  F008         	goto	i2u446_41
  1855   0011A2  EFD5  F008         	goto	i2u446_40
  1856   0011A6                     i2u446_41:
  1857   0011A6  EFDC  F008         	goto	i2l742
  1858   0011AA                     i2u446_40:
  1859   0011AA                     
  1860                           ;MCAL_layer/interrupt/mcal_interrupt_manager.c: 78:     {;MCAL_layer/interrupt/mcal_inte
      +                          rrupt_manager.c: 79:         RB5_ISR(0);
  1861   0011AA  0E00               	movlw	0
  1862   0011AC  EC62  F00C         	call	_RB5_ISR
  1863   0011B0                     
  1864                           ;MCAL_layer/interrupt/mcal_interrupt_manager.c: 80:         RB5_enter = 1;
  1865   0011B0  0E01               	movlw	1
  1866   0011B2  6E17               	movwf	_RB5_enter^0,c	;volatile
  1867                           
  1868                           ;MCAL_layer/interrupt/mcal_interrupt_manager.c: 81:     }
  1869   0011B4  EF6C  F009         	goto	i2l751
  1870   0011B8                     i2l742:
  1871   0011B8  A6F2               	btfss	242,3,c	;volatile
  1872   0011BA  EFE1  F008         	goto	i2u447_41
  1873   0011BE  EFE3  F008         	goto	i2u447_40
  1874   0011C2                     i2u447_41:
  1875   0011C2  EF00  F009         	goto	i2l744
  1876   0011C6                     i2u447_40:
  1877   0011C6  A0F2               	btfss	242,0,c	;volatile
  1878   0011C8  EFE8  F008         	goto	i2u448_41
  1879   0011CC  EFEA  F008         	goto	i2u448_40
  1880   0011D0                     i2u448_41:
  1881   0011D0  EF00  F009         	goto	i2l744
  1882   0011D4                     i2u448_40:
  1883   0011D4  AC81               	btfss	129,6,c	;volatile
  1884   0011D6  EFEF  F008         	goto	i2u449_41
  1885   0011DA  EFF1  F008         	goto	i2u449_40
  1886   0011DE                     i2u449_41:
  1887   0011DE  EF00  F009         	goto	i2l744
  1888   0011E2                     i2u449_40:
  1889   0011E2  0416               	decf	_RB6_enter^0,w,c	;volatile
  1890   0011E4  A4D8               	btfss	status,2,c
  1891   0011E6  EFF7  F008         	goto	i2u450_41
  1892   0011EA  EFF9  F008         	goto	i2u450_40
  1893   0011EE                     i2u450_41:
  1894   0011EE  EF00  F009         	goto	i2l744
  1895   0011F2                     i2u450_40:
  1896   0011F2                     
  1897                           ;MCAL_layer/interrupt/mcal_interrupt_manager.c: 84:     {;MCAL_layer/interrupt/mcal_inte
      +                          rrupt_manager.c: 85:         RB6_ISR(1);
  1898   0011F2  0E01               	movlw	1
  1899   0011F4  EC1A  F00C         	call	_RB6_ISR
  1900   0011F8                     
  1901                           ;MCAL_layer/interrupt/mcal_interrupt_manager.c: 86:         RB6_enter = 0;
  1902   0011F8  0E00               	movlw	0
  1903   0011FA  6E16               	movwf	_RB6_enter^0,c	;volatile
  1904                           
  1905                           ;MCAL_layer/interrupt/mcal_interrupt_manager.c: 87:     }
  1906   0011FC  EF6C  F009         	goto	i2l751
  1907   001200                     i2l744:
  1908   001200  A6F2               	btfss	242,3,c	;volatile
  1909   001202  EF05  F009         	goto	i2u451_41
  1910   001206  EF07  F009         	goto	i2u451_40
  1911   00120A                     i2u451_41:
  1912   00120A  EF24  F009         	goto	i2l746
  1913   00120E                     i2u451_40:
  1914   00120E  A0F2               	btfss	242,0,c	;volatile
  1915   001210  EF0C  F009         	goto	i2u452_41
  1916   001214  EF0E  F009         	goto	i2u452_40
  1917   001218                     i2u452_41:
  1918   001218  EF24  F009         	goto	i2l746
  1919   00121C                     i2u452_40:
  1920   00121C  BC81               	btfsc	129,6,c	;volatile
  1921   00121E  EF13  F009         	goto	i2u453_41
  1922   001222  EF15  F009         	goto	i2u453_40
  1923   001226                     i2u453_41:
  1924   001226  EF24  F009         	goto	i2l746
  1925   00122A                     i2u453_40:
  1926   00122A  5016               	movf	_RB6_enter^0,w,c	;volatile
  1927   00122C  A4D8               	btfss	status,2,c
  1928   00122E  EF1B  F009         	goto	i2u454_41
  1929   001232  EF1D  F009         	goto	i2u454_40
  1930   001236                     i2u454_41:
  1931   001236  EF24  F009         	goto	i2l746
  1932   00123A                     i2u454_40:
  1933   00123A                     
  1934                           ;MCAL_layer/interrupt/mcal_interrupt_manager.c: 89:     {;MCAL_layer/interrupt/mcal_inte
      +                          rrupt_manager.c: 90:         RB6_ISR(0);
  1935   00123A  0E00               	movlw	0
  1936   00123C  EC1A  F00C         	call	_RB6_ISR
  1937   001240                     
  1938                           ;MCAL_layer/interrupt/mcal_interrupt_manager.c: 91:         RB6_enter = 1;
  1939   001240  0E01               	movlw	1
  1940   001242  6E16               	movwf	_RB6_enter^0,c	;volatile
  1941                           
  1942                           ;MCAL_layer/interrupt/mcal_interrupt_manager.c: 92:     }
  1943   001244  EF6C  F009         	goto	i2l751
  1944   001248                     i2l746:
  1945   001248  A6F2               	btfss	242,3,c	;volatile
  1946   00124A  EF29  F009         	goto	i2u455_41
  1947   00124E  EF2B  F009         	goto	i2u455_40
  1948   001252                     i2u455_41:
  1949   001252  EF48  F009         	goto	i2l748
  1950   001256                     i2u455_40:
  1951   001256  A0F2               	btfss	242,0,c	;volatile
  1952   001258  EF30  F009         	goto	i2u456_41
  1953   00125C  EF32  F009         	goto	i2u456_40
  1954   001260                     i2u456_41:
  1955   001260  EF48  F009         	goto	i2l748
  1956   001264                     i2u456_40:
  1957   001264  AE81               	btfss	129,7,c	;volatile
  1958   001266  EF37  F009         	goto	i2u457_41
  1959   00126A  EF39  F009         	goto	i2u457_40
  1960   00126E                     i2u457_41:
  1961   00126E  EF48  F009         	goto	i2l748
  1962   001272                     i2u457_40:
  1963   001272  0415               	decf	_RB7_enter^0,w,c	;volatile
  1964   001274  A4D8               	btfss	status,2,c
  1965   001276  EF3F  F009         	goto	i2u458_41
  1966   00127A  EF41  F009         	goto	i2u458_40
  1967   00127E                     i2u458_41:
  1968   00127E  EF48  F009         	goto	i2l748
  1969   001282                     i2u458_40:
  1970   001282                     
  1971                           ;MCAL_layer/interrupt/mcal_interrupt_manager.c: 95:     {;MCAL_layer/interrupt/mcal_inte
      +                          rrupt_manager.c: 96:         RB7_ISR(1);
  1972   001282  0E01               	movlw	1
  1973   001284  ECD2  F00B         	call	_RB7_ISR
  1974   001288                     
  1975                           ;MCAL_layer/interrupt/mcal_interrupt_manager.c: 97:         RB7_enter = 0;
  1976   001288  0E00               	movlw	0
  1977   00128A  6E15               	movwf	_RB7_enter^0,c	;volatile
  1978                           
  1979                           ;MCAL_layer/interrupt/mcal_interrupt_manager.c: 98:     }
  1980   00128C  EF6C  F009         	goto	i2l751
  1981   001290                     i2l748:
  1982   001290  A6F2               	btfss	242,3,c	;volatile
  1983   001292  EF4D  F009         	goto	i2u459_41
  1984   001296  EF4F  F009         	goto	i2u459_40
  1985   00129A                     i2u459_41:
  1986   00129A  EF6C  F009         	goto	i2l745
  1987   00129E                     i2u459_40:
  1988   00129E  A0F2               	btfss	242,0,c	;volatile
  1989   0012A0  EF54  F009         	goto	i2u460_41
  1990   0012A4  EF56  F009         	goto	i2u460_40
  1991   0012A8                     i2u460_41:
  1992   0012A8  EF6C  F009         	goto	i2l745
  1993   0012AC                     i2u460_40:
  1994   0012AC  BE81               	btfsc	129,7,c	;volatile
  1995   0012AE  EF5B  F009         	goto	i2u461_41
  1996   0012B2  EF5D  F009         	goto	i2u461_40
  1997   0012B6                     i2u461_41:
  1998   0012B6  EF6C  F009         	goto	i2l745
  1999   0012BA                     i2u461_40:
  2000   0012BA  5015               	movf	_RB7_enter^0,w,c	;volatile
  2001   0012BC  A4D8               	btfss	status,2,c
  2002   0012BE  EF63  F009         	goto	i2u462_41
  2003   0012C2  EF65  F009         	goto	i2u462_40
  2004   0012C6                     i2u462_41:
  2005   0012C6  EF6C  F009         	goto	i2l745
  2006   0012CA                     i2u462_40:
  2007   0012CA                     
  2008                           ;MCAL_layer/interrupt/mcal_interrupt_manager.c: 100:     {;MCAL_layer/interrupt/mcal_int
      +                          errupt_manager.c: 101:         RB7_ISR(0);
  2009   0012CA  0E00               	movlw	0
  2010   0012CC  ECD2  F00B         	call	_RB7_ISR
  2011   0012D0                     
  2012                           ;MCAL_layer/interrupt/mcal_interrupt_manager.c: 102:         RB7_enter = 1;
  2013   0012D0  0E01               	movlw	1
  2014   0012D2  6E15               	movwf	_RB7_enter^0,c	;volatile
  2015   0012D4  EF6C  F009         	goto	i2l751
  2016   0012D8                     i2l745:
  2017   0012D8                     i2l751:
  2018   0012D8  C06E  FFF4         	movff	??_InterruptManagerHigh+5,prodh
  2019   0012DC  C06D  FFF3         	movff	??_InterruptManagerHigh+4,prodl
  2020   0012E0  C06C  FFDA         	movff	??_InterruptManagerHigh+3,fsr2h
  2021   0012E4  C06B  FFD9         	movff	??_InterruptManagerHigh+2,fsr2l
  2022   0012E8  C06A  FFFB         	movff	??_InterruptManagerHigh+1,pclatu
  2023   0012EC  C069  FFFA         	movff	??_InterruptManagerHigh,pclath
  2024   0012F0  926F               	bcf	int$flags,1,c	;clear compiler interrupt flag (level 2)
  2025   0012F2  0011               	retfie		f
  2026   0012F4                     __end_of_InterruptManagerHigh:
  2027                           	callstack 0
  2028                           
  2029 ;; *************** function _RB7_ISR *****************
  2030 ;; Defined at:
  2031 ;;		line 602 in file "MCAL_layer/interrupt/mcal_external_interrupt.c"
  2032 ;; Parameters:    Size  Location     Type
  2033 ;;  RB7_Int         1    wreg     unsigned char 
  2034 ;; Auto vars:     Size  Location     Type
  2035 ;;  RB7_Int         1   13[COMRAM] unsigned char 
  2036 ;; Return value:  Size  Location     Type
  2037 ;;                  1    wreg      void 
  2038 ;; Registers used:
  2039 ;;		wreg, fsr2l, fsr2h, status,2, status,0, pcl, pclath, pclatu, tosl, prodl, prodh, cstack
  2040 ;; Tracked objects:
  2041 ;;		On entry : 0/0
  2042 ;;		On exit  : 0/0
  2043 ;;		Unchanged: 0/0
  2044 ;; Data sizes:     COMRAM   BANK0   BANK1   BANK2   BANK3   BANK4   BANK5   BANK6   BANK7   BANK8   BANK9  BANK10  BANK1
      +1  BANK12  BANK13  BANK14  BANK15
  2045 ;;      Params:         0       0       0       0       0       0       0       0       0       0       0       0       
      +0       0       0       0       0
  2046 ;;      Locals:         1       0       0       0       0       0       0       0       0       0       0       0       
      +0       0       0       0       0
  2047 ;;      Temps:          2       0       0       0       0       0       0       0       0       0       0       0       
      +0       0       0       0       0
  2048 ;;      Totals:         3       0       0       0       0       0       0       0       0       0       0       0       
      +0       0       0       0       0
  2049 ;;Total ram usage:        3 bytes
  2050 ;; Hardware stack levels used: 1
  2051 ;; Hardware stack levels required when called: 3
  2052 ;; This function calls:
  2053 ;;		NULL
  2054 ;;		_toggleLED2_High
  2055 ;;		_toggleLED2_Low
  2056 ;;		_toggleLED3_High
  2057 ;;		_toggleLED3_Low
  2058 ;;		_toggleLED4_High
  2059 ;;		_toggleLED4_Low
  2060 ;;		_toggleLED_High
  2061 ;;		_toggleLED_Low
  2062 ;; This function is called by:
  2063 ;;		_InterruptManagerHigh
  2064 ;; This function uses a non-reentrant model
  2065 ;;
  2066                           
  2067                           	psect	text7
  2068   0017A4                     __ptext7:
  2069                           	callstack 0
  2070   0017A4                     _RB7_ISR:
  2071                           	callstack 23
  2072                           
  2073                           ;incstack = 0
  2074                           ;RB7_ISR@RB7_Int stored from wreg
  2075   0017A4  6E68               	movwf	RB7_ISR@RB7_Int^0,c
  2076   0017A6                     
  2077                           ;MCAL_layer/interrupt/mcal_external_interrupt.c: 602: void RB7_ISR(uint8 RB7_Int);MCAL_l
      +                          ayer/interrupt/mcal_external_interrupt.c: 603: {;MCAL_layer/interrupt/mcal_external_inte
      +                          rrupt.c: 605:     (INTCONbits.RBIF=0);
  2078   0017A6  90F2               	bcf	242,0,c	;volatile
  2079                           
  2080                           ;MCAL_layer/interrupt/mcal_external_interrupt.c: 606:     switch(RB7_Int)
  2081   0017A8  EF04  F00C         	goto	i2l4175
  2082   0017AC                     i2l4165:
  2083                           
  2084                           ;MCAL_layer/interrupt/mcal_external_interrupt.c: 609:         if(((void*)0) != RB7_Inter
      +                          ruptHandler_LOW)
  2085   0017AC  503E               	movf	_RB7_InterruptHandler_LOW^0,w,c
  2086   0017AE  103F               	iorwf	(_RB7_InterruptHandler_LOW+1)^0,w,c
  2087   0017B0  B4D8               	btfsc	status,2,c
  2088   0017B2  EFDD  F00B         	goto	i2u373_41
  2089   0017B6  EFDF  F00B         	goto	i2u373_40
  2090   0017BA                     i2u373_41:
  2091   0017BA  EF19  F00C         	goto	i2l697
  2092   0017BE                     i2u373_40:
  2093   0017BE                     
  2094                           ;MCAL_layer/interrupt/mcal_external_interrupt.c: 610:         {;MCAL_layer/interrupt/mca
      +                          l_external_interrupt.c: 611:             RB7_InterruptHandler_LOW();
  2095   0017BE  D802               	call	i2u374_48
  2096   0017C0  EFEB  F00B         	goto	i2u374_49
  2097   0017C4                     i2u374_48:
  2098   0017C4  0005               	push	
  2099   0017C6  6EFA               	movwf	pclath,c
  2100   0017C8  503E               	movf	_RB7_InterruptHandler_LOW^0,w,c
  2101   0017CA  6EFD               	movwf	tosl,c
  2102   0017CC  503F               	movf	(_RB7_InterruptHandler_LOW+1)^0,w,c
  2103   0017CE  6EFE               	movwf	tosh,c
  2104   0017D0  6AFF               	clrf	tosu,c
  2105   0017D2  50FA               	movf	pclath,w,c
  2106   0017D4  0012               	return		;indir
  2107   0017D6                     i2u374_49:
  2108   0017D6  EF19  F00C         	goto	i2l697
  2109   0017DA                     i2l4169:
  2110                           
  2111                           ;MCAL_layer/interrupt/mcal_external_interrupt.c: 616:         if(((void*)0) != RB7_Inter
      +                          ruptHandler_HIGH)
  2112   0017DA  5036               	movf	_RB7_InterruptHandler_HIGH^0,w,c
  2113   0017DC  1037               	iorwf	(_RB7_InterruptHandler_HIGH+1)^0,w,c
  2114   0017DE  B4D8               	btfsc	status,2,c
  2115   0017E0  EFF4  F00B         	goto	i2u375_41
  2116   0017E4  EFF6  F00B         	goto	i2u375_40
  2117   0017E8                     i2u375_41:
  2118   0017E8  EF19  F00C         	goto	i2l697
  2119   0017EC                     i2u375_40:
  2120   0017EC                     
  2121                           ;MCAL_layer/interrupt/mcal_external_interrupt.c: 617:         {;MCAL_layer/interrupt/mca
      +                          l_external_interrupt.c: 618:             RB7_InterruptHandler_HIGH();
  2122   0017EC  D802               	call	i2u376_48
  2123   0017EE  EF02  F00C         	goto	i2u376_49
  2124   0017F2                     i2u376_48:
  2125   0017F2  0005               	push	
  2126   0017F4  6EFA               	movwf	pclath,c
  2127   0017F6  5036               	movf	_RB7_InterruptHandler_HIGH^0,w,c
  2128   0017F8  6EFD               	movwf	tosl,c
  2129   0017FA  5037               	movf	(_RB7_InterruptHandler_HIGH+1)^0,w,c
  2130   0017FC  6EFE               	movwf	tosh,c
  2131   0017FE  6AFF               	clrf	tosu,c
  2132   001800  50FA               	movf	pclath,w,c
  2133   001802  0012               	return		;indir
  2134   001804                     i2u376_49:
  2135   001804  EF19  F00C         	goto	i2l697
  2136   001808                     i2l4175:
  2137   001808  5068               	movf	RB7_ISR@RB7_Int^0,w,c
  2138   00180A  6E66               	movwf	??_RB7_ISR^0,c
  2139   00180C  6A67               	clrf	(??_RB7_ISR+1)^0,c
  2140                           
  2141                           ; Switch on 2 bytes has been partitioned into a top level switch of size 1, and 1 sub-sw
      +                          itches
  2142                           ; Switch size 1, requested type "simple"
  2143                           ; Number of cases is 1, Range of values is 0 to 0
  2144                           ; switch strategies available:
  2145                           ; Name         Instructions Cycles
  2146                           ; simple_byte            4     3 (average)
  2147                           ;	Chosen strategy is simple_byte
  2148   00180E  5067               	movf	(??_RB7_ISR+1)^0,w,c
  2149   001810  0A00               	xorlw	0	; case 0
  2150   001812  B4D8               	btfsc	status,2,c
  2151   001814  EF0E  F00C         	goto	i2l4927
  2152   001818  EF19  F00C         	goto	i2l697
  2153   00181C                     i2l4927:
  2154                           
  2155                           ; Switch size 1, requested type "simple"
  2156                           ; Number of cases is 2, Range of values is 0 to 1
  2157                           ; switch strategies available:
  2158                           ; Name         Instructions Cycles
  2159                           ; simple_byte            7     4 (average)
  2160                           ;	Chosen strategy is simple_byte
  2161   00181C  5066               	movf	??_RB7_ISR^0,w,c
  2162   00181E  0A00               	xorlw	0	; case 0
  2163   001820  B4D8               	btfsc	status,2,c
  2164   001822  EFD6  F00B         	goto	i2l4165
  2165   001826  0A01               	xorlw	1	; case 1
  2166   001828  B4D8               	btfsc	status,2,c
  2167   00182A  EFED  F00B         	goto	i2l4169
  2168   00182E  EF19  F00C         	goto	i2l697
  2169   001832                     i2l697:
  2170   001832  0012               	return		;funcret
  2171   001834                     __end_of_RB7_ISR:
  2172                           	callstack 0
  2173                           
  2174 ;; *************** function _RB6_ISR *****************
  2175 ;; Defined at:
  2176 ;;		line 580 in file "MCAL_layer/interrupt/mcal_external_interrupt.c"
  2177 ;; Parameters:    Size  Location     Type
  2178 ;;  RB6_Int         1    wreg     unsigned char 
  2179 ;; Auto vars:     Size  Location     Type
  2180 ;;  RB6_Int         1   13[COMRAM] unsigned char 
  2181 ;; Return value:  Size  Location     Type
  2182 ;;                  1    wreg      void 
  2183 ;; Registers used:
  2184 ;;		wreg, fsr2l, fsr2h, status,2, status,0, pcl, pclath, pclatu, tosl, prodl, prodh, cstack
  2185 ;; Tracked objects:
  2186 ;;		On entry : 0/0
  2187 ;;		On exit  : 0/0
  2188 ;;		Unchanged: 0/0
  2189 ;; Data sizes:     COMRAM   BANK0   BANK1   BANK2   BANK3   BANK4   BANK5   BANK6   BANK7   BANK8   BANK9  BANK10  BANK1
      +1  BANK12  BANK13  BANK14  BANK15
  2190 ;;      Params:         0       0       0       0       0       0       0       0       0       0       0       0       
      +0       0       0       0       0
  2191 ;;      Locals:         1       0       0       0       0       0       0       0       0       0       0       0       
      +0       0       0       0       0
  2192 ;;      Temps:          2       0       0       0       0       0       0       0       0       0       0       0       
      +0       0       0       0       0
  2193 ;;      Totals:         3       0       0       0       0       0       0       0       0       0       0       0       
      +0       0       0       0       0
  2194 ;;Total ram usage:        3 bytes
  2195 ;; Hardware stack levels used: 1
  2196 ;; Hardware stack levels required when called: 3
  2197 ;; This function calls:
  2198 ;;		NULL
  2199 ;;		_toggleLED2_High
  2200 ;;		_toggleLED2_Low
  2201 ;;		_toggleLED3_High
  2202 ;;		_toggleLED3_Low
  2203 ;;		_toggleLED4_High
  2204 ;;		_toggleLED4_Low
  2205 ;;		_toggleLED_High
  2206 ;;		_toggleLED_Low
  2207 ;; This function is called by:
  2208 ;;		_InterruptManagerHigh
  2209 ;; This function uses a non-reentrant model
  2210 ;;
  2211                           
  2212                           	psect	text8
  2213   001834                     __ptext8:
  2214                           	callstack 0
  2215   001834                     _RB6_ISR:
  2216                           	callstack 23
  2217                           
  2218                           ;incstack = 0
  2219                           ;RB6_ISR@RB6_Int stored from wreg
  2220   001834  6E68               	movwf	RB6_ISR@RB6_Int^0,c
  2221   001836                     
  2222                           ;MCAL_layer/interrupt/mcal_external_interrupt.c: 580: void RB6_ISR(uint8 RB6_Int);MCAL_l
      +                          ayer/interrupt/mcal_external_interrupt.c: 581: {;MCAL_layer/interrupt/mcal_external_inte
      +                          rrupt.c: 583:     (INTCONbits.RBIF=0);
  2223   001836  90F2               	bcf	242,0,c	;volatile
  2224                           
  2225                           ;MCAL_layer/interrupt/mcal_external_interrupt.c: 584:     switch(RB6_Int)
  2226   001838  EF4C  F00C         	goto	i2l4157
  2227   00183C                     i2l4147:
  2228                           
  2229                           ;MCAL_layer/interrupt/mcal_external_interrupt.c: 587:         if(((void*)0) != RB6_Inter
      +                          ruptHandler_LOW)
  2230   00183C  5040               	movf	_RB6_InterruptHandler_LOW^0,w,c
  2231   00183E  1041               	iorwf	(_RB6_InterruptHandler_LOW+1)^0,w,c
  2232   001840  B4D8               	btfsc	status,2,c
  2233   001842  EF25  F00C         	goto	i2u369_41
  2234   001846  EF27  F00C         	goto	i2u369_40
  2235   00184A                     i2u369_41:
  2236   00184A  EF61  F00C         	goto	i2l688
  2237   00184E                     i2u369_40:
  2238   00184E                     
  2239                           ;MCAL_layer/interrupt/mcal_external_interrupt.c: 588:         {;MCAL_layer/interrupt/mca
      +                          l_external_interrupt.c: 589:             RB6_InterruptHandler_LOW();
  2240   00184E  D802               	call	i2u370_48
  2241   001850  EF33  F00C         	goto	i2u370_49
  2242   001854                     i2u370_48:
  2243   001854  0005               	push	
  2244   001856  6EFA               	movwf	pclath,c
  2245   001858  5040               	movf	_RB6_InterruptHandler_LOW^0,w,c
  2246   00185A  6EFD               	movwf	tosl,c
  2247   00185C  5041               	movf	(_RB6_InterruptHandler_LOW+1)^0,w,c
  2248   00185E  6EFE               	movwf	tosh,c
  2249   001860  6AFF               	clrf	tosu,c
  2250   001862  50FA               	movf	pclath,w,c
  2251   001864  0012               	return		;indir
  2252   001866                     i2u370_49:
  2253   001866  EF61  F00C         	goto	i2l688
  2254   00186A                     i2l4151:
  2255                           
  2256                           ;MCAL_layer/interrupt/mcal_external_interrupt.c: 594:         if(((void*)0) != RB6_Inter
      +                          ruptHandler_HIGH)
  2257   00186A  5038               	movf	_RB6_InterruptHandler_HIGH^0,w,c
  2258   00186C  1039               	iorwf	(_RB6_InterruptHandler_HIGH+1)^0,w,c
  2259   00186E  B4D8               	btfsc	status,2,c
  2260   001870  EF3C  F00C         	goto	i2u371_41
  2261   001874  EF3E  F00C         	goto	i2u371_40
  2262   001878                     i2u371_41:
  2263   001878  EF61  F00C         	goto	i2l688
  2264   00187C                     i2u371_40:
  2265   00187C                     
  2266                           ;MCAL_layer/interrupt/mcal_external_interrupt.c: 595:         {;MCAL_layer/interrupt/mca
      +                          l_external_interrupt.c: 596:             RB6_InterruptHandler_HIGH();
  2267   00187C  D802               	call	i2u372_48
  2268   00187E  EF4A  F00C         	goto	i2u372_49
  2269   001882                     i2u372_48:
  2270   001882  0005               	push	
  2271   001884  6EFA               	movwf	pclath,c
  2272   001886  5038               	movf	_RB6_InterruptHandler_HIGH^0,w,c
  2273   001888  6EFD               	movwf	tosl,c
  2274   00188A  5039               	movf	(_RB6_InterruptHandler_HIGH+1)^0,w,c
  2275   00188C  6EFE               	movwf	tosh,c
  2276   00188E  6AFF               	clrf	tosu,c
  2277   001890  50FA               	movf	pclath,w,c
  2278   001892  0012               	return		;indir
  2279   001894                     i2u372_49:
  2280   001894  EF61  F00C         	goto	i2l688
  2281   001898                     i2l4157:
  2282   001898  5068               	movf	RB6_ISR@RB6_Int^0,w,c
  2283   00189A  6E66               	movwf	??_RB6_ISR^0,c
  2284   00189C  6A67               	clrf	(??_RB6_ISR+1)^0,c
  2285                           
  2286                           ; Switch on 2 bytes has been partitioned into a top level switch of size 1, and 1 sub-sw
      +                          itches
  2287                           ; Switch size 1, requested type "simple"
  2288                           ; Number of cases is 1, Range of values is 0 to 0
  2289                           ; switch strategies available:
  2290                           ; Name         Instructions Cycles
  2291                           ; simple_byte            4     3 (average)
  2292                           ;	Chosen strategy is simple_byte
  2293   00189E  5067               	movf	(??_RB6_ISR+1)^0,w,c
  2294   0018A0  0A00               	xorlw	0	; case 0
  2295   0018A2  B4D8               	btfsc	status,2,c
  2296   0018A4  EF56  F00C         	goto	i2l4929
  2297   0018A8  EF61  F00C         	goto	i2l688
  2298   0018AC                     i2l4929:
  2299                           
  2300                           ; Switch size 1, requested type "simple"
  2301                           ; Number of cases is 2, Range of values is 0 to 1
  2302                           ; switch strategies available:
  2303                           ; Name         Instructions Cycles
  2304                           ; simple_byte            7     4 (average)
  2305                           ;	Chosen strategy is simple_byte
  2306   0018AC  5066               	movf	??_RB6_ISR^0,w,c
  2307   0018AE  0A00               	xorlw	0	; case 0
  2308   0018B0  B4D8               	btfsc	status,2,c
  2309   0018B2  EF1E  F00C         	goto	i2l4147
  2310   0018B6  0A01               	xorlw	1	; case 1
  2311   0018B8  B4D8               	btfsc	status,2,c
  2312   0018BA  EF35  F00C         	goto	i2l4151
  2313   0018BE  EF61  F00C         	goto	i2l688
  2314   0018C2                     i2l688:
  2315   0018C2  0012               	return		;funcret
  2316   0018C4                     __end_of_RB6_ISR:
  2317                           	callstack 0
  2318                           
  2319 ;; *************** function _RB5_ISR *****************
  2320 ;; Defined at:
  2321 ;;		line 557 in file "MCAL_layer/interrupt/mcal_external_interrupt.c"
  2322 ;; Parameters:    Size  Location     Type
  2323 ;;  RB5_Int         1    wreg     unsigned char 
  2324 ;; Auto vars:     Size  Location     Type
  2325 ;;  RB5_Int         1   13[COMRAM] unsigned char 
  2326 ;; Return value:  Size  Location     Type
  2327 ;;                  1    wreg      void 
  2328 ;; Registers used:
  2329 ;;		wreg, fsr2l, fsr2h, status,2, status,0, pcl, pclath, pclatu, tosl, prodl, prodh, cstack
  2330 ;; Tracked objects:
  2331 ;;		On entry : 0/0
  2332 ;;		On exit  : 0/0
  2333 ;;		Unchanged: 0/0
  2334 ;; Data sizes:     COMRAM   BANK0   BANK1   BANK2   BANK3   BANK4   BANK5   BANK6   BANK7   BANK8   BANK9  BANK10  BANK1
      +1  BANK12  BANK13  BANK14  BANK15
  2335 ;;      Params:         0       0       0       0       0       0       0       0       0       0       0       0       
      +0       0       0       0       0
  2336 ;;      Locals:         1       0       0       0       0       0       0       0       0       0       0       0       
      +0       0       0       0       0
  2337 ;;      Temps:          2       0       0       0       0       0       0       0       0       0       0       0       
      +0       0       0       0       0
  2338 ;;      Totals:         3       0       0       0       0       0       0       0       0       0       0       0       
      +0       0       0       0       0
  2339 ;;Total ram usage:        3 bytes
  2340 ;; Hardware stack levels used: 1
  2341 ;; Hardware stack levels required when called: 3
  2342 ;; This function calls:
  2343 ;;		NULL
  2344 ;;		_toggleLED2_High
  2345 ;;		_toggleLED2_Low
  2346 ;;		_toggleLED3_High
  2347 ;;		_toggleLED3_Low
  2348 ;;		_toggleLED4_High
  2349 ;;		_toggleLED4_Low
  2350 ;;		_toggleLED_High
  2351 ;;		_toggleLED_Low
  2352 ;; This function is called by:
  2353 ;;		_InterruptManagerHigh
  2354 ;; This function uses a non-reentrant model
  2355 ;;
  2356                           
  2357                           	psect	text9
  2358   0018C4                     __ptext9:
  2359                           	callstack 0
  2360   0018C4                     _RB5_ISR:
  2361                           	callstack 23
  2362                           
  2363                           ;incstack = 0
  2364                           ;RB5_ISR@RB5_Int stored from wreg
  2365   0018C4  6E68               	movwf	RB5_ISR@RB5_Int^0,c
  2366   0018C6                     
  2367                           ;MCAL_layer/interrupt/mcal_external_interrupt.c: 557: void RB5_ISR(uint8 RB5_Int);MCAL_l
      +                          ayer/interrupt/mcal_external_interrupt.c: 558: {;MCAL_layer/interrupt/mcal_external_inte
      +                          rrupt.c: 560:     (INTCONbits.RBIF=0);
  2368   0018C6  90F2               	bcf	242,0,c	;volatile
  2369                           
  2370                           ;MCAL_layer/interrupt/mcal_external_interrupt.c: 561:     switch(RB5_Int)
  2371   0018C8  EF94  F00C         	goto	i2l4139
  2372   0018CC                     i2l4129:
  2373                           
  2374                           ;MCAL_layer/interrupt/mcal_external_interrupt.c: 564:         if(((void*)0) != RB5_Inter
      +                          ruptHandler_LOW)
  2375   0018CC  5042               	movf	_RB5_InterruptHandler_LOW^0,w,c
  2376   0018CE  1043               	iorwf	(_RB5_InterruptHandler_LOW+1)^0,w,c
  2377   0018D0  B4D8               	btfsc	status,2,c
  2378   0018D2  EF6D  F00C         	goto	i2u365_41
  2379   0018D6  EF6F  F00C         	goto	i2u365_40
  2380   0018DA                     i2u365_41:
  2381   0018DA  EFA9  F00C         	goto	i2l679
  2382   0018DE                     i2u365_40:
  2383   0018DE                     
  2384                           ;MCAL_layer/interrupt/mcal_external_interrupt.c: 565:         {;MCAL_layer/interrupt/mca
      +                          l_external_interrupt.c: 566:             RB5_InterruptHandler_LOW();
  2385   0018DE  D802               	call	i2u366_48
  2386   0018E0  EF7B  F00C         	goto	i2u366_49
  2387   0018E4                     i2u366_48:
  2388   0018E4  0005               	push	
  2389   0018E6  6EFA               	movwf	pclath,c
  2390   0018E8  5042               	movf	_RB5_InterruptHandler_LOW^0,w,c
  2391   0018EA  6EFD               	movwf	tosl,c
  2392   0018EC  5043               	movf	(_RB5_InterruptHandler_LOW+1)^0,w,c
  2393   0018EE  6EFE               	movwf	tosh,c
  2394   0018F0  6AFF               	clrf	tosu,c
  2395   0018F2  50FA               	movf	pclath,w,c
  2396   0018F4  0012               	return		;indir
  2397   0018F6                     i2u366_49:
  2398   0018F6  EFA9  F00C         	goto	i2l679
  2399   0018FA                     i2l4133:
  2400                           
  2401                           ;MCAL_layer/interrupt/mcal_external_interrupt.c: 571:         if(((void*)0) != RB5_Inter
      +                          ruptHandler_HIGH)
  2402   0018FA  503A               	movf	_RB5_InterruptHandler_HIGH^0,w,c
  2403   0018FC  103B               	iorwf	(_RB5_InterruptHandler_HIGH+1)^0,w,c
  2404   0018FE  B4D8               	btfsc	status,2,c
  2405   001900  EF84  F00C         	goto	i2u367_41
  2406   001904  EF86  F00C         	goto	i2u367_40
  2407   001908                     i2u367_41:
  2408   001908  EFA9  F00C         	goto	i2l679
  2409   00190C                     i2u367_40:
  2410   00190C                     
  2411                           ;MCAL_layer/interrupt/mcal_external_interrupt.c: 572:         {;MCAL_layer/interrupt/mca
      +                          l_external_interrupt.c: 573:             RB5_InterruptHandler_HIGH();
  2412   00190C  D802               	call	i2u368_48
  2413   00190E  EF92  F00C         	goto	i2u368_49
  2414   001912                     i2u368_48:
  2415   001912  0005               	push	
  2416   001914  6EFA               	movwf	pclath,c
  2417   001916  503A               	movf	_RB5_InterruptHandler_HIGH^0,w,c
  2418   001918  6EFD               	movwf	tosl,c
  2419   00191A  503B               	movf	(_RB5_InterruptHandler_HIGH+1)^0,w,c
  2420   00191C  6EFE               	movwf	tosh,c
  2421   00191E  6AFF               	clrf	tosu,c
  2422   001920  50FA               	movf	pclath,w,c
  2423   001922  0012               	return		;indir
  2424   001924                     i2u368_49:
  2425   001924  EFA9  F00C         	goto	i2l679
  2426   001928                     i2l4139:
  2427   001928  5068               	movf	RB5_ISR@RB5_Int^0,w,c
  2428   00192A  6E66               	movwf	??_RB5_ISR^0,c
  2429   00192C  6A67               	clrf	(??_RB5_ISR+1)^0,c
  2430                           
  2431                           ; Switch on 2 bytes has been partitioned into a top level switch of size 1, and 1 sub-sw
      +                          itches
  2432                           ; Switch size 1, requested type "simple"
  2433                           ; Number of cases is 1, Range of values is 0 to 0
  2434                           ; switch strategies available:
  2435                           ; Name         Instructions Cycles
  2436                           ; simple_byte            4     3 (average)
  2437                           ;	Chosen strategy is simple_byte
  2438   00192E  5067               	movf	(??_RB5_ISR+1)^0,w,c
  2439   001930  0A00               	xorlw	0	; case 0
  2440   001932  B4D8               	btfsc	status,2,c
  2441   001934  EF9E  F00C         	goto	i2l4931
  2442   001938  EFA9  F00C         	goto	i2l679
  2443   00193C                     i2l4931:
  2444                           
  2445                           ; Switch size 1, requested type "simple"
  2446                           ; Number of cases is 2, Range of values is 0 to 1
  2447                           ; switch strategies available:
  2448                           ; Name         Instructions Cycles
  2449                           ; simple_byte            7     4 (average)
  2450                           ;	Chosen strategy is simple_byte
  2451   00193C  5066               	movf	??_RB5_ISR^0,w,c
  2452   00193E  0A00               	xorlw	0	; case 0
  2453   001940  B4D8               	btfsc	status,2,c
  2454   001942  EF66  F00C         	goto	i2l4129
  2455   001946  0A01               	xorlw	1	; case 1
  2456   001948  B4D8               	btfsc	status,2,c
  2457   00194A  EF7D  F00C         	goto	i2l4133
  2458   00194E  EFA9  F00C         	goto	i2l679
  2459   001952                     i2l679:
  2460   001952  0012               	return		;funcret
  2461   001954                     __end_of_RB5_ISR:
  2462                           	callstack 0
  2463                           
  2464 ;; *************** function _RB4_ISR *****************
  2465 ;; Defined at:
  2466 ;;		line 535 in file "MCAL_layer/interrupt/mcal_external_interrupt.c"
  2467 ;; Parameters:    Size  Location     Type
  2468 ;;  RB4_Int         1    wreg     unsigned char 
  2469 ;; Auto vars:     Size  Location     Type
  2470 ;;  RB4_Int         1   13[COMRAM] unsigned char 
  2471 ;; Return value:  Size  Location     Type
  2472 ;;                  1    wreg      void 
  2473 ;; Registers used:
  2474 ;;		wreg, fsr2l, fsr2h, status,2, status,0, pcl, pclath, pclatu, tosl, prodl, prodh, cstack
  2475 ;; Tracked objects:
  2476 ;;		On entry : 0/0
  2477 ;;		On exit  : 0/0
  2478 ;;		Unchanged: 0/0
  2479 ;; Data sizes:     COMRAM   BANK0   BANK1   BANK2   BANK3   BANK4   BANK5   BANK6   BANK7   BANK8   BANK9  BANK10  BANK1
      +1  BANK12  BANK13  BANK14  BANK15
  2480 ;;      Params:         0       0       0       0       0       0       0       0       0       0       0       0       
      +0       0       0       0       0
  2481 ;;      Locals:         1       0       0       0       0       0       0       0       0       0       0       0       
      +0       0       0       0       0
  2482 ;;      Temps:          2       0       0       0       0       0       0       0       0       0       0       0       
      +0       0       0       0       0
  2483 ;;      Totals:         3       0       0       0       0       0       0       0       0       0       0       0       
      +0       0       0       0       0
  2484 ;;Total ram usage:        3 bytes
  2485 ;; Hardware stack levels used: 1
  2486 ;; Hardware stack levels required when called: 3
  2487 ;; This function calls:
  2488 ;;		NULL
  2489 ;;		_toggleLED2_High
  2490 ;;		_toggleLED2_Low
  2491 ;;		_toggleLED3_High
  2492 ;;		_toggleLED3_Low
  2493 ;;		_toggleLED4_High
  2494 ;;		_toggleLED4_Low
  2495 ;;		_toggleLED_High
  2496 ;;		_toggleLED_Low
  2497 ;; This function is called by:
  2498 ;;		_InterruptManagerHigh
  2499 ;; This function uses a non-reentrant model
  2500 ;;
  2501                           
  2502                           	psect	text10
  2503   001954                     __ptext10:
  2504                           	callstack 0
  2505   001954                     _RB4_ISR:
  2506                           	callstack 23
  2507                           
  2508                           ;incstack = 0
  2509                           ;RB4_ISR@RB4_Int stored from wreg
  2510   001954  6E68               	movwf	RB4_ISR@RB4_Int^0,c
  2511   001956                     
  2512                           ;MCAL_layer/interrupt/mcal_external_interrupt.c: 535: void RB4_ISR(uint8 RB4_Int);MCAL_l
      +                          ayer/interrupt/mcal_external_interrupt.c: 536: {;MCAL_layer/interrupt/mcal_external_inte
      +                          rrupt.c: 538:     (INTCONbits.RBIF=0);
  2513   001956  90F2               	bcf	242,0,c	;volatile
  2514                           
  2515                           ;MCAL_layer/interrupt/mcal_external_interrupt.c: 539:     switch(RB4_Int)
  2516   001958  EFDC  F00C         	goto	i2l4121
  2517   00195C                     i2l4111:
  2518                           
  2519                           ;MCAL_layer/interrupt/mcal_external_interrupt.c: 542:         if(((void*)0) != RB4_Inter
      +                          ruptHandler_LOW)
  2520   00195C  5044               	movf	_RB4_InterruptHandler_LOW^0,w,c
  2521   00195E  1045               	iorwf	(_RB4_InterruptHandler_LOW+1)^0,w,c
  2522   001960  B4D8               	btfsc	status,2,c
  2523   001962  EFB5  F00C         	goto	i2u361_41
  2524   001966  EFB7  F00C         	goto	i2u361_40
  2525   00196A                     i2u361_41:
  2526   00196A  EFF1  F00C         	goto	i2l670
  2527   00196E                     i2u361_40:
  2528   00196E                     
  2529                           ;MCAL_layer/interrupt/mcal_external_interrupt.c: 543:         {;MCAL_layer/interrupt/mca
      +                          l_external_interrupt.c: 544:             RB4_InterruptHandler_LOW();
  2530   00196E  D802               	call	i2u362_48
  2531   001970  EFC3  F00C         	goto	i2u362_49
  2532   001974                     i2u362_48:
  2533   001974  0005               	push	
  2534   001976  6EFA               	movwf	pclath,c
  2535   001978  5044               	movf	_RB4_InterruptHandler_LOW^0,w,c
  2536   00197A  6EFD               	movwf	tosl,c
  2537   00197C  5045               	movf	(_RB4_InterruptHandler_LOW+1)^0,w,c
  2538   00197E  6EFE               	movwf	tosh,c
  2539   001980  6AFF               	clrf	tosu,c
  2540   001982  50FA               	movf	pclath,w,c
  2541   001984  0012               	return		;indir
  2542   001986                     i2u362_49:
  2543   001986  EFF1  F00C         	goto	i2l670
  2544   00198A                     i2l4115:
  2545                           
  2546                           ;MCAL_layer/interrupt/mcal_external_interrupt.c: 549:         if(((void*)0) != RB4_Inter
      +                          ruptHandler_HIGH)
  2547   00198A  503C               	movf	_RB4_InterruptHandler_HIGH^0,w,c
  2548   00198C  103D               	iorwf	(_RB4_InterruptHandler_HIGH+1)^0,w,c
  2549   00198E  B4D8               	btfsc	status,2,c
  2550   001990  EFCC  F00C         	goto	i2u363_41
  2551   001994  EFCE  F00C         	goto	i2u363_40
  2552   001998                     i2u363_41:
  2553   001998  EFF1  F00C         	goto	i2l670
  2554   00199C                     i2u363_40:
  2555   00199C                     
  2556                           ;MCAL_layer/interrupt/mcal_external_interrupt.c: 550:         {;MCAL_layer/interrupt/mca
      +                          l_external_interrupt.c: 551:             RB4_InterruptHandler_HIGH();
  2557   00199C  D802               	call	i2u364_48
  2558   00199E  EFDA  F00C         	goto	i2u364_49
  2559   0019A2                     i2u364_48:
  2560   0019A2  0005               	push	
  2561   0019A4  6EFA               	movwf	pclath,c
  2562   0019A6  503C               	movf	_RB4_InterruptHandler_HIGH^0,w,c
  2563   0019A8  6EFD               	movwf	tosl,c
  2564   0019AA  503D               	movf	(_RB4_InterruptHandler_HIGH+1)^0,w,c
  2565   0019AC  6EFE               	movwf	tosh,c
  2566   0019AE  6AFF               	clrf	tosu,c
  2567   0019B0  50FA               	movf	pclath,w,c
  2568   0019B2  0012               	return		;indir
  2569   0019B4                     i2u364_49:
  2570   0019B4  EFF1  F00C         	goto	i2l670
  2571   0019B8                     i2l4121:
  2572   0019B8  5068               	movf	RB4_ISR@RB4_Int^0,w,c
  2573   0019BA  6E66               	movwf	??_RB4_ISR^0,c
  2574   0019BC  6A67               	clrf	(??_RB4_ISR+1)^0,c
  2575                           
  2576                           ; Switch on 2 bytes has been partitioned into a top level switch of size 1, and 1 sub-sw
      +                          itches
  2577                           ; Switch size 1, requested type "simple"
  2578                           ; Number of cases is 1, Range of values is 0 to 0
  2579                           ; switch strategies available:
  2580                           ; Name         Instructions Cycles
  2581                           ; simple_byte            4     3 (average)
  2582                           ;	Chosen strategy is simple_byte
  2583   0019BE  5067               	movf	(??_RB4_ISR+1)^0,w,c
  2584   0019C0  0A00               	xorlw	0	; case 0
  2585   0019C2  B4D8               	btfsc	status,2,c
  2586   0019C4  EFE6  F00C         	goto	i2l4933
  2587   0019C8  EFF1  F00C         	goto	i2l670
  2588   0019CC                     i2l4933:
  2589                           
  2590                           ; Switch size 1, requested type "simple"
  2591                           ; Number of cases is 2, Range of values is 0 to 1
  2592                           ; switch strategies available:
  2593                           ; Name         Instructions Cycles
  2594                           ; simple_byte            7     4 (average)
  2595                           ;	Chosen strategy is simple_byte
  2596   0019CC  5066               	movf	??_RB4_ISR^0,w,c
  2597   0019CE  0A00               	xorlw	0	; case 0
  2598   0019D0  B4D8               	btfsc	status,2,c
  2599   0019D2  EFAE  F00C         	goto	i2l4111
  2600   0019D6  0A01               	xorlw	1	; case 1
  2601   0019D8  B4D8               	btfsc	status,2,c
  2602   0019DA  EFC5  F00C         	goto	i2l4115
  2603   0019DE  EFF1  F00C         	goto	i2l670
  2604   0019E2                     i2l670:
  2605   0019E2  0012               	return		;funcret
  2606   0019E4                     __end_of_RB4_ISR:
  2607                           	callstack 0
  2608                           
  2609 ;; *************** function _toggleLED4_Low *****************
  2610 ;; Defined at:
  2611 ;;		line 88 in file "application.c"
  2612 ;; Parameters:    Size  Location     Type
  2613 ;;		None
  2614 ;; Auto vars:     Size  Location     Type
  2615 ;;		None
  2616 ;; Return value:  Size  Location     Type
  2617 ;;                  1    wreg      void 
  2618 ;; Registers used:
  2619 ;;		wreg, fsr2l, fsr2h, status,2, status,0, prodl, prodh, cstack
  2620 ;; Tracked objects:
  2621 ;;		On entry : 0/0
  2622 ;;		On exit  : 0/0
  2623 ;;		Unchanged: 0/0
  2624 ;; Data sizes:     COMRAM   BANK0   BANK1   BANK2   BANK3   BANK4   BANK5   BANK6   BANK7   BANK8   BANK9  BANK10  BANK1
      +1  BANK12  BANK13  BANK14  BANK15
  2625 ;;      Params:         0       0       0       0       0       0       0       0       0       0       0       0       
      +0       0       0       0       0
  2626 ;;      Locals:         0       0       0       0       0       0       0       0       0       0       0       0       
      +0       0       0       0       0
  2627 ;;      Temps:          0       0       0       0       0       0       0       0       0       0       0       0       
      +0       0       0       0       0
  2628 ;;      Totals:         0       0       0       0       0       0       0       0       0       0       0       0       
      +0       0       0       0       0
  2629 ;;Total ram usage:        0 bytes
  2630 ;; Hardware stack levels used: 1
  2631 ;; Hardware stack levels required when called: 2
  2632 ;; This function calls:
  2633 ;;		_led_turn_off
  2634 ;; This function is called by:
  2635 ;;		_RB4_ISR
  2636 ;;		_RB5_ISR
  2637 ;;		_RB6_ISR
  2638 ;;		_RB7_ISR
  2639 ;; This function uses a non-reentrant model
  2640 ;;
  2641                           
  2642                           	psect	text11
  2643   001C94                     __ptext11:
  2644                           	callstack 0
  2645   001C94                     _toggleLED4_Low:
  2646                           	callstack 23
  2647   001C94                     
  2648                           ;application.c: 90:   ret= led_turn_off(&led4);
  2649   001C94  0E32               	movlw	low _led4
  2650   001C96  6E62               	movwf	led_turn_off@led^0,c
  2651   001C98  EC2D  F00D         	call	_led_turn_off	;wreg free
  2652   001C9C  6E19               	movwf	_ret^0,c
  2653   001C9E  0012               	return		;funcret
  2654   001CA0                     __end_of_toggleLED4_Low:
  2655                           	callstack 0
  2656                           
  2657 ;; *************** function _toggleLED3_Low *****************
  2658 ;; Defined at:
  2659 ;;		line 79 in file "application.c"
  2660 ;; Parameters:    Size  Location     Type
  2661 ;;		None
  2662 ;; Auto vars:     Size  Location     Type
  2663 ;;		None
  2664 ;; Return value:  Size  Location     Type
  2665 ;;                  1    wreg      void 
  2666 ;; Registers used:
  2667 ;;		wreg, fsr2l, fsr2h, status,2, status,0, prodl, prodh, cstack
  2668 ;; Tracked objects:
  2669 ;;		On entry : 0/0
  2670 ;;		On exit  : 0/0
  2671 ;;		Unchanged: 0/0
  2672 ;; Data sizes:     COMRAM   BANK0   BANK1   BANK2   BANK3   BANK4   BANK5   BANK6   BANK7   BANK8   BANK9  BANK10  BANK1
      +1  BANK12  BANK13  BANK14  BANK15
  2673 ;;      Params:         0       0       0       0       0       0       0       0       0       0       0       0       
      +0       0       0       0       0
  2674 ;;      Locals:         0       0       0       0       0       0       0       0       0       0       0       0       
      +0       0       0       0       0
  2675 ;;      Temps:          0       0       0       0       0       0       0       0       0       0       0       0       
      +0       0       0       0       0
  2676 ;;      Totals:         0       0       0       0       0       0       0       0       0       0       0       0       
      +0       0       0       0       0
  2677 ;;Total ram usage:        0 bytes
  2678 ;; Hardware stack levels used: 1
  2679 ;; Hardware stack levels required when called: 2
  2680 ;; This function calls:
  2681 ;;		_led_turn_off
  2682 ;; This function is called by:
  2683 ;;		_RB4_ISR
  2684 ;;		_RB5_ISR
  2685 ;;		_RB6_ISR
  2686 ;;		_RB7_ISR
  2687 ;; This function uses a non-reentrant model
  2688 ;;
  2689                           
  2690                           	psect	text12
  2691   001CA0                     __ptext12:
  2692                           	callstack 0
  2693   001CA0                     _toggleLED3_Low:
  2694                           	callstack 23
  2695   001CA0                     
  2696                           ;application.c: 81:   ret= led_turn_off(&led3);
  2697   001CA0  0E33               	movlw	low _led3
  2698   001CA2  6E62               	movwf	led_turn_off@led^0,c
  2699   001CA4  EC2D  F00D         	call	_led_turn_off	;wreg free
  2700   001CA8  6E19               	movwf	_ret^0,c
  2701   001CAA  0012               	return		;funcret
  2702   001CAC                     __end_of_toggleLED3_Low:
  2703                           	callstack 0
  2704                           
  2705 ;; *************** function _toggleLED2_Low *****************
  2706 ;; Defined at:
  2707 ;;		line 71 in file "application.c"
  2708 ;; Parameters:    Size  Location     Type
  2709 ;;		None
  2710 ;; Auto vars:     Size  Location     Type
  2711 ;;		None
  2712 ;; Return value:  Size  Location     Type
  2713 ;;                  1    wreg      void 
  2714 ;; Registers used:
  2715 ;;		wreg, fsr2l, fsr2h, status,2, status,0, prodl, prodh, cstack
  2716 ;; Tracked objects:
  2717 ;;		On entry : 0/0
  2718 ;;		On exit  : 0/0
  2719 ;;		Unchanged: 0/0
  2720 ;; Data sizes:     COMRAM   BANK0   BANK1   BANK2   BANK3   BANK4   BANK5   BANK6   BANK7   BANK8   BANK9  BANK10  BANK1
      +1  BANK12  BANK13  BANK14  BANK15
  2721 ;;      Params:         0       0       0       0       0       0       0       0       0       0       0       0       
      +0       0       0       0       0
  2722 ;;      Locals:         0       0       0       0       0       0       0       0       0       0       0       0       
      +0       0       0       0       0
  2723 ;;      Temps:          0       0       0       0       0       0       0       0       0       0       0       0       
      +0       0       0       0       0
  2724 ;;      Totals:         0       0       0       0       0       0       0       0       0       0       0       0       
      +0       0       0       0       0
  2725 ;;Total ram usage:        0 bytes
  2726 ;; Hardware stack levels used: 1
  2727 ;; Hardware stack levels required when called: 2
  2728 ;; This function calls:
  2729 ;;		_led_turn_off
  2730 ;; This function is called by:
  2731 ;;		_RB4_ISR
  2732 ;;		_RB5_ISR
  2733 ;;		_RB6_ISR
  2734 ;;		_RB7_ISR
  2735 ;; This function uses a non-reentrant model
  2736 ;;
  2737                           
  2738                           	psect	text13
  2739   001CAC                     __ptext13:
  2740                           	callstack 0
  2741   001CAC                     _toggleLED2_Low:
  2742                           	callstack 23
  2743   001CAC                     
  2744                           ;application.c: 73:   ret= led_turn_off(&led2);
  2745   001CAC  0E34               	movlw	low _led2
  2746   001CAE  6E62               	movwf	led_turn_off@led^0,c
  2747   001CB0  EC2D  F00D         	call	_led_turn_off	;wreg free
  2748   001CB4  6E19               	movwf	_ret^0,c
  2749   001CB6  0012               	return		;funcret
  2750   001CB8                     __end_of_toggleLED2_Low:
  2751                           	callstack 0
  2752                           
  2753 ;; *************** function _toggleLED_Low *****************
  2754 ;; Defined at:
  2755 ;;		line 62 in file "application.c"
  2756 ;; Parameters:    Size  Location     Type
  2757 ;;		None
  2758 ;; Auto vars:     Size  Location     Type
  2759 ;;		None
  2760 ;; Return value:  Size  Location     Type
  2761 ;;                  1    wreg      void 
  2762 ;; Registers used:
  2763 ;;		wreg, fsr2l, fsr2h, status,2, status,0, prodl, prodh, cstack
  2764 ;; Tracked objects:
  2765 ;;		On entry : 0/0
  2766 ;;		On exit  : 0/0
  2767 ;;		Unchanged: 0/0
  2768 ;; Data sizes:     COMRAM   BANK0   BANK1   BANK2   BANK3   BANK4   BANK5   BANK6   BANK7   BANK8   BANK9  BANK10  BANK1
      +1  BANK12  BANK13  BANK14  BANK15
  2769 ;;      Params:         0       0       0       0       0       0       0       0       0       0       0       0       
      +0       0       0       0       0
  2770 ;;      Locals:         0       0       0       0       0       0       0       0       0       0       0       0       
      +0       0       0       0       0
  2771 ;;      Temps:          0       0       0       0       0       0       0       0       0       0       0       0       
      +0       0       0       0       0
  2772 ;;      Totals:         0       0       0       0       0       0       0       0       0       0       0       0       
      +0       0       0       0       0
  2773 ;;Total ram usage:        0 bytes
  2774 ;; Hardware stack levels used: 1
  2775 ;; Hardware stack levels required when called: 2
  2776 ;; This function calls:
  2777 ;;		_led_turn_off
  2778 ;; This function is called by:
  2779 ;;		_RB4_ISR
  2780 ;;		_RB5_ISR
  2781 ;;		_RB6_ISR
  2782 ;;		_RB7_ISR
  2783 ;; This function uses a non-reentrant model
  2784 ;;
  2785                           
  2786                           	psect	text14
  2787   001CB8                     __ptext14:
  2788                           	callstack 0
  2789   001CB8                     _toggleLED_Low:
  2790                           	callstack 23
  2791   001CB8                     
  2792                           ;application.c: 64:   ret= led_turn_off(&led1);
  2793   001CB8  0E35               	movlw	low _led1
  2794   001CBA  6E62               	movwf	led_turn_off@led^0,c
  2795   001CBC  EC2D  F00D         	call	_led_turn_off	;wreg free
  2796   001CC0  6E19               	movwf	_ret^0,c
  2797   001CC2  0012               	return		;funcret
  2798   001CC4                     __end_of_toggleLED_Low:
  2799                           	callstack 0
  2800                           
  2801 ;; *************** function _toggleLED4_High *****************
  2802 ;; Defined at:
  2803 ;;		line 92 in file "application.c"
  2804 ;; Parameters:    Size  Location     Type
  2805 ;;		None
  2806 ;; Auto vars:     Size  Location     Type
  2807 ;;		None
  2808 ;; Return value:  Size  Location     Type
  2809 ;;                  1    wreg      void 
  2810 ;; Registers used:
  2811 ;;		wreg, fsr2l, fsr2h, status,2, status,0, prodl, prodh, cstack
  2812 ;; Tracked objects:
  2813 ;;		On entry : 0/0
  2814 ;;		On exit  : 0/0
  2815 ;;		Unchanged: 0/0
  2816 ;; Data sizes:     COMRAM   BANK0   BANK1   BANK2   BANK3   BANK4   BANK5   BANK6   BANK7   BANK8   BANK9  BANK10  BANK1
      +1  BANK12  BANK13  BANK14  BANK15
  2817 ;;      Params:         0       0       0       0       0       0       0       0       0       0       0       0       
      +0       0       0       0       0
  2818 ;;      Locals:         0       0       0       0       0       0       0       0       0       0       0       0       
      +0       0       0       0       0
  2819 ;;      Temps:          0       0       0       0       0       0       0       0       0       0       0       0       
      +0       0       0       0       0
  2820 ;;      Totals:         0       0       0       0       0       0       0       0       0       0       0       0       
      +0       0       0       0       0
  2821 ;;Total ram usage:        0 bytes
  2822 ;; Hardware stack levels used: 1
  2823 ;; Hardware stack levels required when called: 2
  2824 ;; This function calls:
  2825 ;;		_led_turn_on
  2826 ;; This function is called by:
  2827 ;;		_RB4_ISR
  2828 ;;		_RB5_ISR
  2829 ;;		_RB6_ISR
  2830 ;;		_RB7_ISR
  2831 ;; This function uses a non-reentrant model
  2832 ;;
  2833                           
  2834                           	psect	text15
  2835   001CC4                     __ptext15:
  2836                           	callstack 0
  2837   001CC4                     _toggleLED4_High:
  2838                           	callstack 23
  2839   001CC4                     
  2840                           ;application.c: 94:   ret= led_turn_on(&led4);
  2841   001CC4  0E32               	movlw	low _led4
  2842   001CC6  6E62               	movwf	led_turn_on@led^0,c
  2843   001CC8  EC67  F00D         	call	_led_turn_on	;wreg free
  2844   001CCC  6E19               	movwf	_ret^0,c
  2845   001CCE  0012               	return		;funcret
  2846   001CD0                     __end_of_toggleLED4_High:
  2847                           	callstack 0
  2848                           
  2849 ;; *************** function _toggleLED3_High *****************
  2850 ;; Defined at:
  2851 ;;		line 83 in file "application.c"
  2852 ;; Parameters:    Size  Location     Type
  2853 ;;		None
  2854 ;; Auto vars:     Size  Location     Type
  2855 ;;		None
  2856 ;; Return value:  Size  Location     Type
  2857 ;;                  1    wreg      void 
  2858 ;; Registers used:
  2859 ;;		wreg, fsr2l, fsr2h, status,2, status,0, prodl, prodh, cstack
  2860 ;; Tracked objects:
  2861 ;;		On entry : 0/0
  2862 ;;		On exit  : 0/0
  2863 ;;		Unchanged: 0/0
  2864 ;; Data sizes:     COMRAM   BANK0   BANK1   BANK2   BANK3   BANK4   BANK5   BANK6   BANK7   BANK8   BANK9  BANK10  BANK1
      +1  BANK12  BANK13  BANK14  BANK15
  2865 ;;      Params:         0       0       0       0       0       0       0       0       0       0       0       0       
      +0       0       0       0       0
  2866 ;;      Locals:         0       0       0       0       0       0       0       0       0       0       0       0       
      +0       0       0       0       0
  2867 ;;      Temps:          0       0       0       0       0       0       0       0       0       0       0       0       
      +0       0       0       0       0
  2868 ;;      Totals:         0       0       0       0       0       0       0       0       0       0       0       0       
      +0       0       0       0       0
  2869 ;;Total ram usage:        0 bytes
  2870 ;; Hardware stack levels used: 1
  2871 ;; Hardware stack levels required when called: 2
  2872 ;; This function calls:
  2873 ;;		_led_turn_on
  2874 ;; This function is called by:
  2875 ;;		_RB4_ISR
  2876 ;;		_RB5_ISR
  2877 ;;		_RB6_ISR
  2878 ;;		_RB7_ISR
  2879 ;; This function uses a non-reentrant model
  2880 ;;
  2881                           
  2882                           	psect	text16
  2883   001CD0                     __ptext16:
  2884                           	callstack 0
  2885   001CD0                     _toggleLED3_High:
  2886                           	callstack 23
  2887   001CD0                     
  2888                           ;application.c: 85:   ret= led_turn_on(&led3);
  2889   001CD0  0E33               	movlw	low _led3
  2890   001CD2  6E62               	movwf	led_turn_on@led^0,c
  2891   001CD4  EC67  F00D         	call	_led_turn_on	;wreg free
  2892   001CD8  6E19               	movwf	_ret^0,c
  2893   001CDA  0012               	return		;funcret
  2894   001CDC                     __end_of_toggleLED3_High:
  2895                           	callstack 0
  2896                           
  2897 ;; *************** function _toggleLED2_High *****************
  2898 ;; Defined at:
  2899 ;;		line 75 in file "application.c"
  2900 ;; Parameters:    Size  Location     Type
  2901 ;;		None
  2902 ;; Auto vars:     Size  Location     Type
  2903 ;;		None
  2904 ;; Return value:  Size  Location     Type
  2905 ;;                  1    wreg      void 
  2906 ;; Registers used:
  2907 ;;		wreg, fsr2l, fsr2h, status,2, status,0, prodl, prodh, cstack
  2908 ;; Tracked objects:
  2909 ;;		On entry : 0/0
  2910 ;;		On exit  : 0/0
  2911 ;;		Unchanged: 0/0
  2912 ;; Data sizes:     COMRAM   BANK0   BANK1   BANK2   BANK3   BANK4   BANK5   BANK6   BANK7   BANK8   BANK9  BANK10  BANK1
      +1  BANK12  BANK13  BANK14  BANK15
  2913 ;;      Params:         0       0       0       0       0       0       0       0       0       0       0       0       
      +0       0       0       0       0
  2914 ;;      Locals:         0       0       0       0       0       0       0       0       0       0       0       0       
      +0       0       0       0       0
  2915 ;;      Temps:          0       0       0       0       0       0       0       0       0       0       0       0       
      +0       0       0       0       0
  2916 ;;      Totals:         0       0       0       0       0       0       0       0       0       0       0       0       
      +0       0       0       0       0
  2917 ;;Total ram usage:        0 bytes
  2918 ;; Hardware stack levels used: 1
  2919 ;; Hardware stack levels required when called: 2
  2920 ;; This function calls:
  2921 ;;		_led_turn_on
  2922 ;; This function is called by:
  2923 ;;		_RB4_ISR
  2924 ;;		_RB5_ISR
  2925 ;;		_RB6_ISR
  2926 ;;		_RB7_ISR
  2927 ;; This function uses a non-reentrant model
  2928 ;;
  2929                           
  2930                           	psect	text17
  2931   001CDC                     __ptext17:
  2932                           	callstack 0
  2933   001CDC                     _toggleLED2_High:
  2934                           	callstack 23
  2935   001CDC                     
  2936                           ;application.c: 77:   ret= led_turn_on(&led2);
  2937   001CDC  0E34               	movlw	low _led2
  2938   001CDE  6E62               	movwf	led_turn_on@led^0,c
  2939   001CE0  EC67  F00D         	call	_led_turn_on	;wreg free
  2940   001CE4  6E19               	movwf	_ret^0,c
  2941   001CE6  0012               	return		;funcret
  2942   001CE8                     __end_of_toggleLED2_High:
  2943                           	callstack 0
  2944                           
  2945 ;; *************** function _toggleLED_High *****************
  2946 ;; Defined at:
  2947 ;;		line 66 in file "application.c"
  2948 ;; Parameters:    Size  Location     Type
  2949 ;;		None
  2950 ;; Auto vars:     Size  Location     Type
  2951 ;;		None
  2952 ;; Return value:  Size  Location     Type
  2953 ;;                  1    wreg      void 
  2954 ;; Registers used:
  2955 ;;		wreg, fsr2l, fsr2h, status,2, status,0, prodl, prodh, cstack
  2956 ;; Tracked objects:
  2957 ;;		On entry : 0/0
  2958 ;;		On exit  : 0/0
  2959 ;;		Unchanged: 0/0
  2960 ;; Data sizes:     COMRAM   BANK0   BANK1   BANK2   BANK3   BANK4   BANK5   BANK6   BANK7   BANK8   BANK9  BANK10  BANK1
      +1  BANK12  BANK13  BANK14  BANK15
  2961 ;;      Params:         0       0       0       0       0       0       0       0       0       0       0       0       
      +0       0       0       0       0
  2962 ;;      Locals:         0       0       0       0       0       0       0       0       0       0       0       0       
      +0       0       0       0       0
  2963 ;;      Temps:          0       0       0       0       0       0       0       0       0       0       0       0       
      +0       0       0       0       0
  2964 ;;      Totals:         0       0       0       0       0       0       0       0       0       0       0       0       
      +0       0       0       0       0
  2965 ;;Total ram usage:        0 bytes
  2966 ;; Hardware stack levels used: 1
  2967 ;; Hardware stack levels required when called: 2
  2968 ;; This function calls:
  2969 ;;		_led_turn_on
  2970 ;; This function is called by:
  2971 ;;		_RB4_ISR
  2972 ;;		_RB5_ISR
  2973 ;;		_RB6_ISR
  2974 ;;		_RB7_ISR
  2975 ;; This function uses a non-reentrant model
  2976 ;;
  2977                           
  2978                           	psect	text18
  2979   001CE8                     __ptext18:
  2980                           	callstack 0
  2981   001CE8                     _toggleLED_High:
  2982                           	callstack 23
  2983   001CE8                     
  2984                           ;application.c: 68:   ret= led_turn_on(&led1);
  2985   001CE8  0E35               	movlw	low _led1
  2986   001CEA  6E62               	movwf	led_turn_on@led^0,c
  2987   001CEC  EC67  F00D         	call	_led_turn_on	;wreg free
  2988   001CF0  6E19               	movwf	_ret^0,c
  2989   001CF2  0012               	return		;funcret
  2990   001CF4                     __end_of_toggleLED_High:
  2991                           	callstack 0
  2992                           
  2993 ;; *************** function _led_turn_off *****************
  2994 ;; Defined at:
  2995 ;;		line 55 in file "ECU_layer/LED/ecu_led.c"
  2996 ;; Parameters:    Size  Location     Type
  2997 ;;  led             1    7[COMRAM] PTR const struct .
  2998 ;;		 -> led4(1), led3(1), led2(1), led1(1), 
  2999 ;; Auto vars:     Size  Location     Type
  3000 ;;  pin_init        1   10[COMRAM] struct .
  3001 ;;  status          1    9[COMRAM] unsigned char 
  3002 ;; Return value:  Size  Location     Type
  3003 ;;                  1    wreg      unsigned char 
  3004 ;; Registers used:
  3005 ;;		wreg, fsr2l, fsr2h, status,2, status,0, prodl, prodh, cstack
  3006 ;; Tracked objects:
  3007 ;;		On entry : 0/0
  3008 ;;		On exit  : 0/0
  3009 ;;		Unchanged: 0/0
  3010 ;; Data sizes:     COMRAM   BANK0   BANK1   BANK2   BANK3   BANK4   BANK5   BANK6   BANK7   BANK8   BANK9  BANK10  BANK1
      +1  BANK12  BANK13  BANK14  BANK15
  3011 ;;      Params:         1       0       0       0       0       0       0       0       0       0       0       0       
      +0       0       0       0       0
  3012 ;;      Locals:         2       0       0       0       0       0       0       0       0       0       0       0       
      +0       0       0       0       0
  3013 ;;      Temps:          1       0       0       0       0       0       0       0       0       0       0       0       
      +0       0       0       0       0
  3014 ;;      Totals:         4       0       0       0       0       0       0       0       0       0       0       0       
      +0       0       0       0       0
  3015 ;;Total ram usage:        4 bytes
  3016 ;; Hardware stack levels used: 1
  3017 ;; Hardware stack levels required when called: 1
  3018 ;; This function calls:
  3019 ;;		i2_gpio_pin_write_logic
  3020 ;; This function is called by:
  3021 ;;		_toggleLED_Low
  3022 ;;		_toggleLED2_Low
  3023 ;;		_toggleLED3_Low
  3024 ;;		_toggleLED4_Low
  3025 ;; This function uses a non-reentrant model
  3026 ;;
  3027                           
  3028                           	psect	text19
  3029   001A5A                     __ptext19:
  3030                           	callstack 0
  3031   001A5A                     _led_turn_off:
  3032                           	callstack 23
  3033   001A5A                     
  3034                           ;ECU_layer/LED/ecu_led.c: 55: Std_ReturnType led_turn_off(const led_t *led);ECU_layer/LE
      +                          D/ecu_led.c: 56: {;ECU_layer/LED/ecu_led.c: 57:     Std_ReturnType status = (Std_ReturnT
      +                          ype)0x01;
  3035   001A5A  0E01               	movlw	1
  3036   001A5C  6E64               	movwf	led_turn_off@status^0,c
  3037                           
  3038                           ;ECU_layer/LED/ecu_led.c: 58:     if (((void*)0) == led)
  3039   001A5E  5062               	movf	led_turn_off@led^0,w,c
  3040   001A60  A4D8               	btfss	status,2,c
  3041   001A62  EF35  F00D         	goto	i2u345_41
  3042   001A66  EF37  F00D         	goto	i2u345_40
  3043   001A6A                     i2u345_41:
  3044   001A6A  EF3B  F00D         	goto	i2l280
  3045   001A6E                     i2u345_40:
  3046   001A6E                     
  3047                           ;ECU_layer/LED/ecu_led.c: 59:     {;ECU_layer/LED/ecu_led.c: 60:         status = (Std_R
      +                          eturnType)0x00;
  3048   001A6E  0E00               	movlw	0
  3049   001A70  6E64               	movwf	led_turn_off@status^0,c
  3050                           
  3051                           ;ECU_layer/LED/ecu_led.c: 61:     }
  3052   001A72  EF65  F00D         	goto	i2l3903
  3053   001A76                     i2l280:
  3054                           
  3055                           ;ECU_layer/LED/ecu_led.c: 63:     {;ECU_layer/LED/ecu_led.c: 64:         pin_config_t pi
      +                          n_init = {
  3056   001A76  C050  F065         	movff	led_turn_off@F2901,led_turn_off@pin_init
  3057   001A7A  5062               	movf	led_turn_off@led^0,w,c
  3058   001A7C  6ED9               	movwf	fsr2l,c
  3059   001A7E  6ADA               	clrf	fsr2h,c
  3060   001A80  50DF               	movf	223,w,c
  3061   001A82  0B0F               	andlw	15
  3062   001A84  6E63               	movwf	??_led_turn_off^0,c
  3063   001A86  5065               	movf	led_turn_off@pin_init^0,w,c
  3064   001A88  1863               	xorwf	??_led_turn_off^0,w,c
  3065   001A8A  0BF8               	andlw	-8
  3066   001A8C  1863               	xorwf	??_led_turn_off^0,w,c
  3067   001A8E  6E65               	movwf	led_turn_off@pin_init^0,c
  3068   001A90  5062               	movf	led_turn_off@led^0,w,c
  3069   001A92  6ED9               	movwf	fsr2l,c
  3070   001A94  6ADA               	clrf	fsr2h,c
  3071   001A96  38DF               	swapf	223,w,c
  3072   001A98  0B07               	andlw	7
  3073   001A9A  6E63               	movwf	??_led_turn_off^0,c
  3074   001A9C  4663               	rlncf	??_led_turn_off^0,f,c
  3075   001A9E  4663               	rlncf	??_led_turn_off^0,f,c
  3076   001AA0  4663               	rlncf	??_led_turn_off^0,f,c
  3077   001AA2  5065               	movf	led_turn_off@pin_init^0,w,c
  3078   001AA4  1863               	xorwf	??_led_turn_off^0,w,c
  3079   001AA6  0BC7               	andlw	-57
  3080   001AA8  1863               	xorwf	??_led_turn_off^0,w,c
  3081   001AAA  6E65               	movwf	led_turn_off@pin_init^0,c
  3082   001AAC  9C65               	bcf	led_turn_off@pin_init^0,6,c
  3083   001AAE  5062               	movf	led_turn_off@led^0,w,c
  3084   001AB0  6ED9               	movwf	fsr2l,c
  3085   001AB2  6ADA               	clrf	fsr2h,c
  3086   001AB4  AEDF               	btfss	indf2,7,c
  3087   001AB6  D002               	bra	i2u346_45
  3088   001AB8  8E65               	bsf	led_turn_off@pin_init^0,7,c
  3089   001ABA  D001               	bra	i2u346_47
  3090   001ABC                     i2u346_45:
  3091   001ABC  9E65               	bcf	led_turn_off@pin_init^0,7,c
  3092   001ABE                     i2u346_47:
  3093   001ABE                     
  3094                           ;ECU_layer/LED/ecu_led.c: 69:         gpio_pin_write_logic(&pin_init, LOW);
  3095   001ABE  0E65               	movlw	low led_turn_off@pin_init
  3096   001AC0  6E5B               	movwf	i2gpio_pin_write_logic@_pin_config^0,c
  3097   001AC2  0E00               	movlw	0
  3098   001AC4  6E5C               	movwf	i2gpio_pin_write_logic@logic^0,c
  3099   001AC6  ECB7  F00A         	call	i2_gpio_pin_write_logic	;wreg free
  3100   001ACA                     i2l3903:
  3101                           
  3102                           ;ECU_layer/LED/ecu_led.c: 71:     return status;
  3103   001ACA  5064               	movf	led_turn_off@status^0,w,c
  3104   001ACC  0012               	return		;funcret
  3105   001ACE                     __end_of_led_turn_off:
  3106                           	callstack 0
  3107                           
  3108 ;; *************** function _led_turn_on *****************
  3109 ;; Defined at:
  3110 ;;		line 35 in file "ECU_layer/LED/ecu_led.c"
  3111 ;; Parameters:    Size  Location     Type
  3112 ;;  led             1    7[COMRAM] PTR const struct .
  3113 ;;		 -> led4(1), led3(1), led2(1), led1(1), 
  3114 ;; Auto vars:     Size  Location     Type
  3115 ;;  pin_init        1   10[COMRAM] struct .
  3116 ;;  status          1    9[COMRAM] unsigned char 
  3117 ;; Return value:  Size  Location     Type
  3118 ;;                  1    wreg      unsigned char 
  3119 ;; Registers used:
  3120 ;;		wreg, fsr2l, fsr2h, status,2, status,0, prodl, prodh, cstack
  3121 ;; Tracked objects:
  3122 ;;		On entry : 0/0
  3123 ;;		On exit  : 0/0
  3124 ;;		Unchanged: 0/0
  3125 ;; Data sizes:     COMRAM   BANK0   BANK1   BANK2   BANK3   BANK4   BANK5   BANK6   BANK7   BANK8   BANK9  BANK10  BANK1
      +1  BANK12  BANK13  BANK14  BANK15
  3126 ;;      Params:         1       0       0       0       0       0       0       0       0       0       0       0       
      +0       0       0       0       0
  3127 ;;      Locals:         2       0       0       0       0       0       0       0       0       0       0       0       
      +0       0       0       0       0
  3128 ;;      Temps:          1       0       0       0       0       0       0       0       0       0       0       0       
      +0       0       0       0       0
  3129 ;;      Totals:         4       0       0       0       0       0       0       0       0       0       0       0       
      +0       0       0       0       0
  3130 ;;Total ram usage:        4 bytes
  3131 ;; Hardware stack levels used: 1
  3132 ;; Hardware stack levels required when called: 1
  3133 ;; This function calls:
  3134 ;;		i2_gpio_pin_write_logic
  3135 ;; This function is called by:
  3136 ;;		_toggleLED_High
  3137 ;;		_toggleLED2_High
  3138 ;;		_toggleLED3_High
  3139 ;;		_toggleLED4_High
  3140 ;; This function uses a non-reentrant model
  3141 ;;
  3142                           
  3143                           	psect	text20
  3144   001ACE                     __ptext20:
  3145                           	callstack 0
  3146   001ACE                     _led_turn_on:
  3147                           	callstack 23
  3148   001ACE                     
  3149                           ;ECU_layer/LED/ecu_led.c: 35: Std_ReturnType led_turn_on(const led_t *led);ECU_layer/LED
      +                          /ecu_led.c: 36: {;ECU_layer/LED/ecu_led.c: 37:     Std_ReturnType status=(Std_ReturnType
      +                          )0x01;
  3150   001ACE  0E01               	movlw	1
  3151   001AD0  6E64               	movwf	led_turn_on@status^0,c
  3152                           
  3153                           ;ECU_layer/LED/ecu_led.c: 38:     if(((void*)0) == led)
  3154   001AD2  5062               	movf	led_turn_on@led^0,w,c
  3155   001AD4  A4D8               	btfss	status,2,c
  3156   001AD6  EF6F  F00D         	goto	i2u343_41
  3157   001ADA  EF71  F00D         	goto	i2u343_40
  3158   001ADE                     i2u343_41:
  3159   001ADE  EF75  F00D         	goto	i2l273
  3160   001AE2                     i2u343_40:
  3161   001AE2                     
  3162                           ;ECU_layer/LED/ecu_led.c: 39:     {;ECU_layer/LED/ecu_led.c: 40:         status = (Std_R
      +                          eturnType)0x00;
  3163   001AE2  0E00               	movlw	0
  3164   001AE4  6E64               	movwf	led_turn_on@status^0,c
  3165                           
  3166                           ;ECU_layer/LED/ecu_led.c: 41:     }
  3167   001AE6  EF9F  F00D         	goto	i2l3887
  3168   001AEA                     i2l273:
  3169                           
  3170                           ;ECU_layer/LED/ecu_led.c: 43:     {;ECU_layer/LED/ecu_led.c: 44:         pin_config_t pi
      +                          n_init = {
  3171   001AEA  C051  F065         	movff	led_turn_on@F2896,led_turn_on@pin_init
  3172   001AEE  5062               	movf	led_turn_on@led^0,w,c
  3173   001AF0  6ED9               	movwf	fsr2l,c
  3174   001AF2  6ADA               	clrf	fsr2h,c
  3175   001AF4  50DF               	movf	223,w,c
  3176   001AF6  0B0F               	andlw	15
  3177   001AF8  6E63               	movwf	??_led_turn_on^0,c
  3178   001AFA  5065               	movf	led_turn_on@pin_init^0,w,c
  3179   001AFC  1863               	xorwf	??_led_turn_on^0,w,c
  3180   001AFE  0BF8               	andlw	-8
  3181   001B00  1863               	xorwf	??_led_turn_on^0,w,c
  3182   001B02  6E65               	movwf	led_turn_on@pin_init^0,c
  3183   001B04  5062               	movf	led_turn_on@led^0,w,c
  3184   001B06  6ED9               	movwf	fsr2l,c
  3185   001B08  6ADA               	clrf	fsr2h,c
  3186   001B0A  38DF               	swapf	223,w,c
  3187   001B0C  0B07               	andlw	7
  3188   001B0E  6E63               	movwf	??_led_turn_on^0,c
  3189   001B10  4663               	rlncf	??_led_turn_on^0,f,c
  3190   001B12  4663               	rlncf	??_led_turn_on^0,f,c
  3191   001B14  4663               	rlncf	??_led_turn_on^0,f,c
  3192   001B16  5065               	movf	led_turn_on@pin_init^0,w,c
  3193   001B18  1863               	xorwf	??_led_turn_on^0,w,c
  3194   001B1A  0BC7               	andlw	-57
  3195   001B1C  1863               	xorwf	??_led_turn_on^0,w,c
  3196   001B1E  6E65               	movwf	led_turn_on@pin_init^0,c
  3197   001B20  9C65               	bcf	led_turn_on@pin_init^0,6,c
  3198   001B22  5062               	movf	led_turn_on@led^0,w,c
  3199   001B24  6ED9               	movwf	fsr2l,c
  3200   001B26  6ADA               	clrf	fsr2h,c
  3201   001B28  AEDF               	btfss	indf2,7,c
  3202   001B2A  D002               	bra	i2u344_45
  3203   001B2C  8E65               	bsf	led_turn_on@pin_init^0,7,c
  3204   001B2E  D001               	bra	i2u344_47
  3205   001B30                     i2u344_45:
  3206   001B30  9E65               	bcf	led_turn_on@pin_init^0,7,c
  3207   001B32                     i2u344_47:
  3208   001B32                     
  3209                           ;ECU_layer/LED/ecu_led.c: 50:         gpio_pin_write_logic(&pin_init,HIGH);
  3210   001B32  0E65               	movlw	low led_turn_on@pin_init
  3211   001B34  6E5B               	movwf	i2gpio_pin_write_logic@_pin_config^0,c
  3212   001B36  0E01               	movlw	1
  3213   001B38  6E5C               	movwf	i2gpio_pin_write_logic@logic^0,c
  3214   001B3A  ECB7  F00A         	call	i2_gpio_pin_write_logic	;wreg free
  3215   001B3E                     i2l3887:
  3216                           
  3217                           ;ECU_layer/LED/ecu_led.c: 52:     return status;
  3218   001B3E  5064               	movf	led_turn_on@status^0,w,c
  3219   001B40  0012               	return		;funcret
  3220   001B42                     __end_of_led_turn_on:
  3221                           	callstack 0
  3222                           
  3223 ;; *************** function i2_gpio_pin_write_logic *****************
  3224 ;; Defined at:
  3225 ;;		line 82 in file "MCAL_layer/GPIO/hal_gpio.c"
  3226 ;; Parameters:    Size  Location     Type
  3227 ;;  _pin_config     1    0[COMRAM] PTR const struct .
  3228 ;;		 -> relay_turn_off@pin(1), relay_turn_on@pin(1), relay_initialize@pin(1), led_turn_off@pin_init(1), 
  3229 ;;		 -> led_turn_on@pin_init(1), led_initalize@pin_init(1), dc_motor_stop@pin2(1), dc_motor_stop@pin1(1), 
  3230 ;;		 -> dc_motor_move_left@pin2(1), dc_motor_move_left@pin1(1), dc_motor_move_right@pin2(1), dc_motor_move_right@pin1(1)
      +, 
  3231 ;;		 -> dc_motor_initialize@pin2(1), dc_motor_initialize@pin1(1), 
  3232 ;;  logic           1    1[COMRAM] enum E2811
  3233 ;; Auto vars:     Size  Location     Type
  3234 ;;  status          1    0        unsigned char 
  3235 ;; Return value:  Size  Location     Type
  3236 ;;                  1    wreg      unsigned char 
  3237 ;; Registers used:
  3238 ;;		wreg, fsr2l, fsr2h, status,2, status,0, prodl, prodh
  3239 ;; Tracked objects:
  3240 ;;		On entry : 0/0
  3241 ;;		On exit  : 0/0
  3242 ;;		Unchanged: 0/0
  3243 ;; Data sizes:     COMRAM   BANK0   BANK1   BANK2   BANK3   BANK4   BANK5   BANK6   BANK7   BANK8   BANK9  BANK10  BANK1
      +1  BANK12  BANK13  BANK14  BANK15
  3244 ;;      Params:         2       0       0       0       0       0       0       0       0       0       0       0       
      +0       0       0       0       0
  3245 ;;      Locals:         0       0       0       0       0       0       0       0       0       0       0       0       
      +0       0       0       0       0
  3246 ;;      Temps:          5       0       0       0       0       0       0       0       0       0       0       0       
      +0       0       0       0       0
  3247 ;;      Totals:         7       0       0       0       0       0       0       0       0       0       0       0       
      +0       0       0       0       0
  3248 ;;Total ram usage:        7 bytes
  3249 ;; Hardware stack levels used: 1
  3250 ;; This function calls:
  3251 ;;		Nothing
  3252 ;; This function is called by:
  3253 ;;		_led_turn_on
  3254 ;;		_led_turn_off
  3255 ;; This function uses a non-reentrant model
  3256 ;;
  3257                           
  3258                           	psect	text21
  3259   00156E                     __ptext21:
  3260                           	callstack 0
  3261   00156E                     i2_gpio_pin_write_logic:
  3262                           	callstack 23
  3263   00156E                     
  3264                           ;MCAL_layer/GPIO/hal_gpio.c: 85:     if(((void*)0)==_pin_config || _pin_config->pin > 8 
      +                          -1 || _pin_config->port > 5 -1)
  3265   00156E  505B               	movf	i2gpio_pin_write_logic@_pin_config^0,w,c
  3266   001570  B4D8               	btfsc	status,2,c
  3267   001572  EFBD  F00A         	goto	i2u326_41
  3268   001576  EFBF  F00A         	goto	i2u326_40
  3269   00157A                     i2u326_41:
  3270   00157A  EFDD  F00A         	goto	i2l3807
  3271   00157E                     i2u326_40:
  3272   00157E  505B               	movf	i2gpio_pin_write_logic@_pin_config^0,w,c
  3273   001580  6ED9               	movwf	fsr2l,c
  3274   001582  6ADA               	clrf	fsr2h,c
  3275   001584  30DF               	rrcf	223,w,c
  3276   001586  32E8               	rrcf	wreg,f,c
  3277   001588  32E8               	rrcf	wreg,f,c
  3278   00158A  0B07               	andlw	7
  3279   00158C  6E5D               	movwf	??i2_gpio_pin_write_logic^0,c
  3280   00158E  0E08               	movlw	8
  3281   001590  605D               	cpfslt	??i2_gpio_pin_write_logic^0,c
  3282   001592  EFCD  F00A         	goto	i2u327_41
  3283   001596  EFCF  F00A         	goto	i2u327_40
  3284   00159A                     i2u327_41:
  3285   00159A  EFDD  F00A         	goto	i2l3807
  3286   00159E                     i2u327_40:
  3287   00159E  505B               	movf	i2gpio_pin_write_logic@_pin_config^0,w,c
  3288   0015A0  6ED9               	movwf	fsr2l,c
  3289   0015A2  6ADA               	clrf	fsr2h,c
  3290   0015A4  50DF               	movf	223,w,c
  3291   0015A6  0B07               	andlw	7
  3292   0015A8  6E5D               	movwf	??i2_gpio_pin_write_logic^0,c
  3293   0015AA  0E04               	movlw	4
  3294   0015AC  645D               	cpfsgt	??i2_gpio_pin_write_logic^0,c
  3295   0015AE  EFDB  F00A         	goto	i2u328_41
  3296   0015B2  EFDD  F00A         	goto	i2u328_40
  3297   0015B6                     i2u328_41:
  3298   0015B6  EF32  F00B         	goto	i2l3817
  3299   0015BA                     i2u328_40:
  3300   0015BA                     i2l3807:
  3301                           
  3302                           ;MCAL_layer/GPIO/hal_gpio.c: 88:     }
  3303   0015BA  EF47  F00B         	goto	i2l373
  3304   0015BE                     i2l3809:
  3305                           
  3306                           ;MCAL_layer/GPIO/hal_gpio.c: 93:             (*lat_registers[_pin_config->port]|=((uint8
      +                          )0x01<<_pin_config->pin));
  3307   0015BE  505B               	movf	i2gpio_pin_write_logic@_pin_config^0,w,c
  3308   0015C0  6ED9               	movwf	fsr2l,c
  3309   0015C2  6ADA               	clrf	fsr2h,c
  3310   0015C4  30DF               	rrcf	223,w,c
  3311   0015C6  32E8               	rrcf	wreg,f,c
  3312   0015C8  32E8               	rrcf	wreg,f,c
  3313   0015CA  0B07               	andlw	7
  3314   0015CC  6E5D               	movwf	??i2_gpio_pin_write_logic^0,c
  3315   0015CE  0E01               	movlw	1
  3316   0015D0  6E5E               	movwf	(??i2_gpio_pin_write_logic+1)^0,c
  3317   0015D2  2A5D               	incf	??i2_gpio_pin_write_logic^0,f,c
  3318   0015D4  EFEE  F00A         	goto	i2u329_44
  3319   0015D8                     i2u329_45:
  3320   0015D8  90D8               	bcf	status,0,c
  3321   0015DA  365E               	rlcf	(??i2_gpio_pin_write_logic+1)^0,f,c
  3322   0015DC                     i2u329_44:
  3323   0015DC  2E5D               	decfsz	??i2_gpio_pin_write_logic^0,f,c
  3324   0015DE  EFEC  F00A         	goto	i2u329_45
  3325   0015E2  505B               	movf	i2gpio_pin_write_logic@_pin_config^0,w,c
  3326   0015E4  6ED9               	movwf	fsr2l,c
  3327   0015E6  6ADA               	clrf	fsr2h,c
  3328   0015E8  50DF               	movf	223,w,c
  3329   0015EA  0B07               	andlw	7
  3330   0015EC  0D02               	mullw	2
  3331   0015EE  50F3               	movf	243,w,c
  3332   0015F0  0F01               	addlw	low _lat_registers
  3333   0015F2  6ED9               	movwf	fsr2l,c
  3334   0015F4  6ADA               	clrf	fsr2h,c
  3335   0015F6  CFDE F05F          	movff	postinc2,??i2_gpio_pin_write_logic+2
  3336   0015FA  CFDD F060          	movff	postdec2,??i2_gpio_pin_write_logic+3
  3337   0015FE  C05F  FFD9         	movff	??i2_gpio_pin_write_logic+2,fsr2l
  3338   001602  C060  FFDA         	movff	??i2_gpio_pin_write_logic+3,fsr2h
  3339   001606  505E               	movf	(??i2_gpio_pin_write_logic+1)^0,w,c
  3340   001608  12DF               	iorwf	indf2,f,c
  3341                           
  3342                           ;MCAL_layer/GPIO/hal_gpio.c: 94:             break;
  3343   00160A  EF47  F00B         	goto	i2l373
  3344   00160E                     i2l3811:
  3345                           
  3346                           ;MCAL_layer/GPIO/hal_gpio.c: 97:             (*lat_registers[_pin_config->port]&=~((uint
      +                          8)0x01<<_pin_config->pin));
  3347   00160E  505B               	movf	i2gpio_pin_write_logic@_pin_config^0,w,c
  3348   001610  6ED9               	movwf	fsr2l,c
  3349   001612  6ADA               	clrf	fsr2h,c
  3350   001614  30DF               	rrcf	223,w,c
  3351   001616  32E8               	rrcf	wreg,f,c
  3352   001618  32E8               	rrcf	wreg,f,c
  3353   00161A  0B07               	andlw	7
  3354   00161C  6E5D               	movwf	??i2_gpio_pin_write_logic^0,c
  3355   00161E  0E01               	movlw	1
  3356   001620  6E5E               	movwf	(??i2_gpio_pin_write_logic+1)^0,c
  3357   001622  2A5D               	incf	??i2_gpio_pin_write_logic^0,f,c
  3358   001624  EF16  F00B         	goto	i2u330_44
  3359   001628                     i2u330_45:
  3360   001628  90D8               	bcf	status,0,c
  3361   00162A  365E               	rlcf	(??i2_gpio_pin_write_logic+1)^0,f,c
  3362   00162C                     i2u330_44:
  3363   00162C  2E5D               	decfsz	??i2_gpio_pin_write_logic^0,f,c
  3364   00162E  EF14  F00B         	goto	i2u330_45
  3365   001632  505E               	movf	(??i2_gpio_pin_write_logic+1)^0,w,c
  3366   001634  0AFF               	xorlw	255
  3367   001636  6E5F               	movwf	(??i2_gpio_pin_write_logic+2)^0,c
  3368   001638  505B               	movf	i2gpio_pin_write_logic@_pin_config^0,w,c
  3369   00163A  6ED9               	movwf	fsr2l,c
  3370   00163C  6ADA               	clrf	fsr2h,c
  3371   00163E  50DF               	movf	223,w,c
  3372   001640  0B07               	andlw	7
  3373   001642  0D02               	mullw	2
  3374   001644  50F3               	movf	243,w,c
  3375   001646  0F01               	addlw	low _lat_registers
  3376   001648  6ED9               	movwf	fsr2l,c
  3377   00164A  6ADA               	clrf	fsr2h,c
  3378   00164C  CFDE F060          	movff	postinc2,??i2_gpio_pin_write_logic+3
  3379   001650  CFDD F061          	movff	postdec2,??i2_gpio_pin_write_logic+4
  3380   001654  C060  FFD9         	movff	??i2_gpio_pin_write_logic+3,fsr2l
  3381   001658  C061  FFDA         	movff	??i2_gpio_pin_write_logic+4,fsr2h
  3382   00165C  505F               	movf	(??i2_gpio_pin_write_logic+2)^0,w,c
  3383   00165E  16DF               	andwf	indf2,f,c
  3384                           
  3385                           ;MCAL_layer/GPIO/hal_gpio.c: 98:             break;
  3386   001660  EF47  F00B         	goto	i2l373
  3387   001664                     i2l3817:
  3388   001664  505C               	movf	i2gpio_pin_write_logic@logic^0,w,c
  3389   001666  6E5D               	movwf	??i2_gpio_pin_write_logic^0,c
  3390   001668  6A5E               	clrf	(??i2_gpio_pin_write_logic+1)^0,c
  3391                           
  3392                           ; Switch on 2 bytes has been partitioned into a top level switch of size 1, and 1 sub-sw
      +                          itches
  3393                           ; Switch size 1, requested type "simple"
  3394                           ; Number of cases is 1, Range of values is 0 to 0
  3395                           ; switch strategies available:
  3396                           ; Name         Instructions Cycles
  3397                           ; simple_byte            4     3 (average)
  3398                           ;	Chosen strategy is simple_byte
  3399   00166A  505E               	movf	(??i2_gpio_pin_write_logic+1)^0,w,c
  3400   00166C  0A00               	xorlw	0	; case 0
  3401   00166E  B4D8               	btfsc	status,2,c
  3402   001670  EF3C  F00B         	goto	i2l4935
  3403   001674  EFDD  F00A         	goto	i2l3807
  3404   001678                     i2l4935:
  3405                           
  3406                           ; Switch size 1, requested type "simple"
  3407                           ; Number of cases is 2, Range of values is 0 to 1
  3408                           ; switch strategies available:
  3409                           ; Name         Instructions Cycles
  3410                           ; simple_byte            7     4 (average)
  3411                           ;	Chosen strategy is simple_byte
  3412   001678  505D               	movf	??i2_gpio_pin_write_logic^0,w,c
  3413   00167A  0A00               	xorlw	0	; case 0
  3414   00167C  B4D8               	btfsc	status,2,c
  3415   00167E  EF07  F00B         	goto	i2l3811
  3416   001682  0A01               	xorlw	1	; case 1
  3417   001684  B4D8               	btfsc	status,2,c
  3418   001686  EFDF  F00A         	goto	i2l3809
  3419   00168A  EFDD  F00A         	goto	i2l3807
  3420   00168E                     i2l373:
  3421   00168E  0012               	return		;funcret
  3422   001690                     __end_ofi2_gpio_pin_write_logic:
  3423                           	callstack 0
  3424                           
  3425 ;; *************** function _EXTI2_ISR *****************
  3426 ;; Defined at:
  3427 ;;		line 522 in file "MCAL_layer/interrupt/mcal_external_interrupt.c"
  3428 ;; Parameters:    Size  Location     Type
  3429 ;;		None
  3430 ;; Auto vars:     Size  Location     Type
  3431 ;;		None
  3432 ;; Return value:  Size  Location     Type
  3433 ;;                  1    wreg      void 
  3434 ;; Registers used:
  3435 ;;		None
  3436 ;; Tracked objects:
  3437 ;;		On entry : 0/0
  3438 ;;		On exit  : 0/0
  3439 ;;		Unchanged: 0/0
  3440 ;; Data sizes:     COMRAM   BANK0   BANK1   BANK2   BANK3   BANK4   BANK5   BANK6   BANK7   BANK8   BANK9  BANK10  BANK1
      +1  BANK12  BANK13  BANK14  BANK15
  3441 ;;      Params:         0       0       0       0       0       0       0       0       0       0       0       0       
      +0       0       0       0       0
  3442 ;;      Locals:         0       0       0       0       0       0       0       0       0       0       0       0       
      +0       0       0       0       0
  3443 ;;      Temps:          0       0       0       0       0       0       0       0       0       0       0       0       
      +0       0       0       0       0
  3444 ;;      Totals:         0       0       0       0       0       0       0       0       0       0       0       0       
      +0       0       0       0       0
  3445 ;;Total ram usage:        0 bytes
  3446 ;; Hardware stack levels used: 1
  3447 ;; This function calls:
  3448 ;;		Nothing
  3449 ;; This function is called by:
  3450 ;;		_InterruptManagerHigh
  3451 ;; This function uses a non-reentrant model
  3452 ;;
  3453                           
  3454                           	psect	text22
  3455   001CF4                     __ptext22:
  3456                           	callstack 0
  3457   001CF4                     _EXTI2_ISR:
  3458                           	callstack 26
  3459   001CF4                     
  3460                           ;MCAL_layer/interrupt/mcal_external_interrupt.c: 525:     (INTCON3bits.INT2IF=0);
  3461   001CF4  92F0               	bcf	240,1,c	;volatile
  3462   001CF6  0012               	return		;funcret
  3463   001CF8                     __end_of_EXTI2_ISR:
  3464                           	callstack 0
  3465                           
  3466 ;; *************** function _EXTI1_ISR *****************
  3467 ;; Defined at:
  3468 ;;		line 510 in file "MCAL_layer/interrupt/mcal_external_interrupt.c"
  3469 ;; Parameters:    Size  Location     Type
  3470 ;;		None
  3471 ;; Auto vars:     Size  Location     Type
  3472 ;;		None
  3473 ;; Return value:  Size  Location     Type
  3474 ;;                  1    wreg      void 
  3475 ;; Registers used:
  3476 ;;		None
  3477 ;; Tracked objects:
  3478 ;;		On entry : 0/0
  3479 ;;		On exit  : 0/0
  3480 ;;		Unchanged: 0/0
  3481 ;; Data sizes:     COMRAM   BANK0   BANK1   BANK2   BANK3   BANK4   BANK5   BANK6   BANK7   BANK8   BANK9  BANK10  BANK1
      +1  BANK12  BANK13  BANK14  BANK15
  3482 ;;      Params:         0       0       0       0       0       0       0       0       0       0       0       0       
      +0       0       0       0       0
  3483 ;;      Locals:         0       0       0       0       0       0       0       0       0       0       0       0       
      +0       0       0       0       0
  3484 ;;      Temps:          0       0       0       0       0       0       0       0       0       0       0       0       
      +0       0       0       0       0
  3485 ;;      Totals:         0       0       0       0       0       0       0       0       0       0       0       0       
      +0       0       0       0       0
  3486 ;;Total ram usage:        0 bytes
  3487 ;; Hardware stack levels used: 1
  3488 ;; This function calls:
  3489 ;;		Nothing
  3490 ;; This function is called by:
  3491 ;;		_InterruptManagerHigh
  3492 ;; This function uses a non-reentrant model
  3493 ;;
  3494                           
  3495                           	psect	text23
  3496   001CF8                     __ptext23:
  3497                           	callstack 0
  3498   001CF8                     _EXTI1_ISR:
  3499                           	callstack 26
  3500   001CF8                     
  3501                           ;MCAL_layer/interrupt/mcal_external_interrupt.c: 513:     (INTCON3bits.INT1IF=0);
  3502   001CF8  90F0               	bcf	240,0,c	;volatile
  3503   001CFA  0012               	return		;funcret
  3504   001CFC                     __end_of_EXTI1_ISR:
  3505                           	callstack 0
  3506                           
  3507 ;; *************** function _EXTI0_ISR *****************
  3508 ;; Defined at:
  3509 ;;		line 497 in file "MCAL_layer/interrupt/mcal_external_interrupt.c"
  3510 ;; Parameters:    Size  Location     Type
  3511 ;;		None
  3512 ;; Auto vars:     Size  Location     Type
  3513 ;;		None
  3514 ;; Return value:  Size  Location     Type
  3515 ;;                  1    wreg      void 
  3516 ;; Registers used:
  3517 ;;		None
  3518 ;; Tracked objects:
  3519 ;;		On entry : 0/0
  3520 ;;		On exit  : 0/0
  3521 ;;		Unchanged: 0/0
  3522 ;; Data sizes:     COMRAM   BANK0   BANK1   BANK2   BANK3   BANK4   BANK5   BANK6   BANK7   BANK8   BANK9  BANK10  BANK1
      +1  BANK12  BANK13  BANK14  BANK15
  3523 ;;      Params:         0       0       0       0       0       0       0       0       0       0       0       0       
      +0       0       0       0       0
  3524 ;;      Locals:         0       0       0       0       0       0       0       0       0       0       0       0       
      +0       0       0       0       0
  3525 ;;      Temps:          0       0       0       0       0       0       0       0       0       0       0       0       
      +0       0       0       0       0
  3526 ;;      Totals:         0       0       0       0       0       0       0       0       0       0       0       0       
      +0       0       0       0       0
  3527 ;;Total ram usage:        0 bytes
  3528 ;; Hardware stack levels used: 1
  3529 ;; This function calls:
  3530 ;;		Nothing
  3531 ;; This function is called by:
  3532 ;;		_InterruptManagerHigh
  3533 ;; This function uses a non-reentrant model
  3534 ;;
  3535                           
  3536                           	psect	text24
  3537   001CFC                     __ptext24:
  3538                           	callstack 0
  3539   001CFC                     _EXTI0_ISR:
  3540                           	callstack 26
  3541   001CFC                     
  3542                           ;MCAL_layer/interrupt/mcal_external_interrupt.c: 500:     (INTCONbits.INT0IF=0);
  3543   001CFC  92F2               	bcf	242,1,c	;volatile
  3544   001CFE  0012               	return		;funcret
  3545   001D00                     __end_of_EXTI0_ISR:
  3546                           	callstack 0
  3547                           
  3548                           	psect	text25
  3549   000000                     __ptext25:
  3550                           	callstack 0
  3551   000000                     
  3552                           	psect	rparam
  3553   000000                     
  3554                           	psect	temp
  3555   00006F                     btemp:
  3556                           	callstack 0
  3557   00006F                     	ds	1
  3558   000000                     int$flags	set	btemp
  3559   000000                     wtemp8	set	btemp+1
  3560   000000                     ttemp5	set	btemp+1
  3561   000000                     ttemp6	set	btemp+4
  3562   000000                     ttemp7	set	btemp+8
  3563                           
  3564                           	psect	config
  3565                           
  3566                           ; Padding undefined space
  3567   300000                     	org	3145728
  3568   300000  FF                 	db	255
  3569                           
  3570                           ;Config register CONFIG1H @ 0x300001
  3571                           ;	Oscillator Selection bits
  3572                           ;	OSC = HS, HS oscillator
  3573                           ;	Fail-Safe Clock Monitor Enable bit
  3574                           ;	FCMEN = OFF, Fail-Safe Clock Monitor disabled
  3575                           ;	Internal/External Oscillator Switchover bit
  3576                           ;	IESO = OFF, Oscillator Switchover mode disabled
  3577   300001                     	org	3145729
  3578   300001  02                 	db	2
  3579                           
  3580                           ;Config register CONFIG2L @ 0x300002
  3581                           ;	Power-up Timer Enable bit
  3582                           ;	PWRT = OFF, PWRT disabled
  3583                           ;	Brown-out Reset Enable bits
  3584                           ;	BOREN = OFF, Brown-out Reset disabled in hardware and software
  3585                           ;	Brown Out Reset Voltage bits
  3586                           ;	BORV = 1, 
  3587   300002                     	org	3145730
  3588   300002  09                 	db	9
  3589                           
  3590                           ;Config register CONFIG2H @ 0x300003
  3591                           ;	Watchdog Timer Enable bit
  3592                           ;	WDT = OFF, WDT disabled (control is placed on the SWDTEN bit)
  3593                           ;	Watchdog Timer Postscale Select bits
  3594                           ;	WDTPS = 32768, 1:32768
  3595   300003                     	org	3145731
  3596   300003  1E                 	db	30
  3597                           
  3598                           ; Padding undefined space
  3599   300004                     	org	3145732
  3600   300004  FF                 	db	255
  3601                           
  3602                           ;Config register CONFIG3H @ 0x300005
  3603                           ;	CCP2 MUX bit
  3604                           ;	CCP2MX = PORTC, CCP2 input/output is multiplexed with RC1
  3605                           ;	PORTB A/D Enable bit
  3606                           ;	PBADEN = OFF, PORTB<4:0> pins are configured as digital I/O on Reset
  3607                           ;	Low-Power Timer1 Oscillator Enable bit
  3608                           ;	LPT1OSC = OFF, Timer1 configured for higher power operation
  3609                           ;	MCLR Pin Enable bit
  3610                           ;	MCLRE = ON, MCLR pin enabled; RE3 input pin disabled
  3611   300005                     	org	3145733
  3612   300005  81                 	db	129
  3613                           
  3614                           ;Config register CONFIG4L @ 0x300006
  3615                           ;	Stack Full/Underflow Reset Enable bit
  3616                           ;	STVREN = ON, Stack full/underflow will cause Reset
  3617                           ;	Single-Supply ICSP Enable bit
  3618                           ;	LVP = OFF, Single-Supply ICSP disabled
  3619                           ;	Extended Instruction Set Enable bit
  3620                           ;	XINST = OFF, Instruction set extension and Indexed Addressing mode disabled (Legacy mo
      +                          de)
  3621                           ;	Background Debugger Enable bit
  3622                           ;	DEBUG = 0x1, unprogrammed default
  3623   300006                     	org	3145734
  3624   300006  81                 	db	129
  3625                           
  3626                           ; Padding undefined space
  3627   300007                     	org	3145735
  3628   300007  FF                 	db	255
  3629                           
  3630                           ;Config register CONFIG5L @ 0x300008
  3631                           ;	Code Protection bit
  3632                           ;	CP0 = OFF, Block 0 (000800-003FFFh) not code-protected
  3633                           ;	Code Protection bit
  3634                           ;	CP1 = OFF, Block 1 (004000-007FFFh) not code-protected
  3635                           ;	Code Protection bit
  3636                           ;	CP2 = OFF, Block 2 (008000-00BFFFh) not code-protected
  3637                           ;	Code Protection bit
  3638                           ;	CP3 = OFF, Block 3 (00C000-00FFFFh) not code-protected
  3639   300008                     	org	3145736
  3640   300008  0F                 	db	15
  3641                           
  3642                           ;Config register CONFIG5H @ 0x300009
  3643                           ;	Boot Block Code Protection bit
  3644                           ;	CPB = OFF, Boot block (000000-0007FFh) not code-protected
  3645                           ;	Data EEPROM Code Protection bit
  3646                           ;	CPD = OFF, Data EEPROM not code-protected
  3647   300009                     	org	3145737
  3648   300009  C0                 	db	192
  3649                           
  3650                           ;Config register CONFIG6L @ 0x30000A
  3651                           ;	Write Protection bit
  3652                           ;	WRT0 = OFF, Block 0 (000800-003FFFh) not write-protected
  3653                           ;	Write Protection bit
  3654                           ;	WRT1 = OFF, Block 1 (004000-007FFFh) not write-protected
  3655                           ;	Write Protection bit
  3656                           ;	WRT2 = OFF, Block 2 (008000-00BFFFh) not write-protected
  3657                           ;	Write Protection bit
  3658                           ;	WRT3 = OFF, Block 3 (00C000-00FFFFh) not write-protected
  3659   30000A                     	org	3145738
  3660   30000A  0F                 	db	15
  3661                           
  3662                           ;Config register CONFIG6H @ 0x30000B
  3663                           ;	Configuration Register Write Protection bit
  3664                           ;	WRTC = OFF, Configuration registers (300000-3000FFh) not write-protected
  3665                           ;	Boot Block Write Protection bit
  3666                           ;	WRTB = OFF, Boot Block (000000-0007FFh) not write-protected
  3667                           ;	Data EEPROM Write Protection bit
  3668                           ;	WRTD = OFF, Data EEPROM not write-protected
  3669   30000B                     	org	3145739
  3670   30000B  E0                 	db	224
  3671                           
  3672                           ;Config register CONFIG7L @ 0x30000C
  3673                           ;	Table Read Protection bit
  3674                           ;	EBTR0 = OFF, Block 0 (000800-003FFFh) not protected from table reads executed in other
      +                           blocks
  3675                           ;	Table Read Protection bit
  3676                           ;	EBTR1 = OFF, Block 1 (004000-007FFFh) not protected from table reads executed in other
      +                           blocks
  3677                           ;	Table Read Protection bit
  3678                           ;	EBTR2 = OFF, Block 2 (008000-00BFFFh) not protected from table reads executed in other
      +                           blocks
  3679                           ;	Table Read Protection bit
  3680                           ;	EBTR3 = OFF, Block 3 (00C000-00FFFFh) not protected from table reads executed in other
      +                           blocks
  3681   30000C                     	org	3145740
  3682   30000C  0F                 	db	15
  3683                           
  3684                           ;Config register CONFIG7H @ 0x30000D
  3685                           ;	Boot Block Table Read Protection bit
  3686                           ;	EBTRB = OFF, Boot Block (000000-0007FFh) not protected from table reads executed in ot
      +                          her blocks
  3687   30000D                     	org	3145741
  3688   30000D  40                 	db	64
  3689                           tosu	equ	0xFFF
  3690                           tosh	equ	0xFFE
  3691                           tosl	equ	0xFFD
  3692                           stkptr	equ	0xFFC
  3693                           pclatu	equ	0xFFB
  3694                           pclath	equ	0xFFA
  3695                           pcl	equ	0xFF9
  3696                           tblptru	equ	0xFF8
  3697                           tblptrh	equ	0xFF7
  3698                           tblptrl	equ	0xFF6
  3699                           tablat	equ	0xFF5
  3700                           prodh	equ	0xFF4
  3701                           prodl	equ	0xFF3
  3702                           indf0	equ	0xFEF
  3703                           postinc0	equ	0xFEE
  3704                           postdec0	equ	0xFED
  3705                           preinc0	equ	0xFEC
  3706                           plusw0	equ	0xFEB
  3707                           fsr0h	equ	0xFEA
  3708                           fsr0l	equ	0xFE9
  3709                           wreg	equ	0xFE8
  3710                           indf1	equ	0xFE7
  3711                           postinc1	equ	0xFE6
  3712                           postdec1	equ	0xFE5
  3713                           preinc1	equ	0xFE4
  3714                           plusw1	equ	0xFE3
  3715                           fsr1h	equ	0xFE2
  3716                           fsr1l	equ	0xFE1
  3717                           bsr	equ	0xFE0
  3718                           indf2	equ	0xFDF
  3719                           postinc2	equ	0xFDE
  3720                           postdec2	equ	0xFDD
  3721                           preinc2	equ	0xFDC
  3722                           plusw2	equ	0xFDB
  3723                           fsr2h	equ	0xFDA
  3724                           fsr2l	equ	0xFD9
  3725                           status	equ	0xFD8

Data Sizes:
    Strings     0
    Constant    16
    Data        79
    BSS         37
    Persistent  0
    Stack       0

Auto Spaces:
    Space          Size  Autos    Used
    COMRAM          126     20     110
    BANK0           128     14      40
    BANK1           256      0       0
    BANK2           256      0       0
    BANK3           256      0       0
    BANK4           256      0       0
    BANK5           256      0       0
    BANK6           256      0       0
    BANK7           256      0       0
    BANK8           256      0       0
    BANK9           256      0       0
    BANK10          256      0       0
    BANK11          256      0       0
    BANK12          256      0       0
    BANK13          256      0       0
    BANK14          256      0       0
    BANK15          128      0       0

Pointer List with Targets:

    EXTI0_InterruptHandler	PTR FTN()void  size(2) Largest target is 1
		 -> NULL(), 

    EXTI1_InterruptHandler	PTR FTN()void  size(2) Largest target is 1
		 -> NULL(), 

    EXTI2_InterruptHandler	PTR FTN()void  size(2) Largest target is 1
		 -> NULL(), 

    gpio_pin_direction_initalize@_pin_config	PTR const struct . size(1) Largest target is 6
		 -> dc_motor_initialize@pin1(COMRAM[1]), dc_motor_initialize@pin2(COMRAM[1]), int0(COMRAM[6]), int1(COMRAM[6]), 
		 -> int2(COMRAM[6]), int3(COMRAM[6]), led_initalize@pin_init(BANK0[1]), relay_initialize@pin(COMRAM[1]), 

    gpio_pin_initalize@_pin_config	PTR const struct . size(1) Largest target is 1
		 -> dc_motor_initialize@pin1(COMRAM[1]), dc_motor_initialize@pin2(COMRAM[1]), led_initalize@pin_init(BANK0[1]), relay_initialize@pin(COMRAM[1]), 

    gpio_pin_write_logic@_pin_config	PTR const struct . size(1) Largest target is 1
		 -> dc_motor_initialize@pin1(COMRAM[1]), dc_motor_initialize@pin2(COMRAM[1]), dc_motor_move_left@pin1(COMRAM[1]), dc_motor_move_left@pin2(COMRAM[1]), 
		 -> dc_motor_move_right@pin1(COMRAM[1]), dc_motor_move_right@pin2(COMRAM[1]), dc_motor_stop@pin1(COMRAM[1]), dc_motor_stop@pin2(COMRAM[1]), 
		 -> led_initalize@pin_init(BANK0[1]), led_turn_off@pin_init(COMRAM[1]), led_turn_on@pin_init(COMRAM[1]), relay_initialize@pin(COMRAM[1]), 
		 -> relay_turn_off@pin(COMRAM[1]), relay_turn_on@pin(COMRAM[1]), 

    int0$pf	PTR FTN()void  size(2) Largest target is 1
		 -> toggleLED2_Low(), toggleLED3_Low(), toggleLED4_Low(), toggleLED_Low(), 

    int0$pf2	PTR FTN()void  size(2) Largest target is 1
		 -> toggleLED2_High(), toggleLED3_High(), toggleLED4_High(), toggleLED_High(), 

    int1$pf	PTR FTN()void  size(2) Largest target is 1
		 -> toggleLED2_Low(), toggleLED3_Low(), toggleLED4_Low(), toggleLED_Low(), 

    int1$pf2	PTR FTN()void  size(2) Largest target is 1
		 -> toggleLED2_High(), toggleLED3_High(), toggleLED4_High(), toggleLED_High(), 

    int2$pf	PTR FTN()void  size(2) Largest target is 1
		 -> toggleLED2_Low(), toggleLED3_Low(), toggleLED4_Low(), toggleLED_Low(), 

    int2$pf2	PTR FTN()void  size(2) Largest target is 1
		 -> toggleLED2_High(), toggleLED3_High(), toggleLED4_High(), toggleLED_High(), 

    int3$pf	PTR FTN()void  size(2) Largest target is 1
		 -> toggleLED2_Low(), toggleLED3_Low(), toggleLED4_Low(), toggleLED_Low(), 

    int3$pf2	PTR FTN()void  size(2) Largest target is 1
		 -> toggleLED2_High(), toggleLED3_High(), toggleLED4_High(), toggleLED_High(), 

    Interrupt_INTx_Clear_Flag@int_obj$pf	PTR FTN()void  size(2) Largest target is 0

    Interrupt_INTx_Disable@int_obj$pf	PTR FTN()void  size(2) Largest target is 0

    Interrupt_INTx_Edge_Init@int_obj$pf	PTR FTN()void  size(2) Largest target is 0

    Interrupt_INTx_Enable@int_obj$pf	PTR FTN()void  size(2) Largest target is 0

    Interrupt_INTx_Pin_Init@int_obj$pf	PTR FTN()void  size(2) Largest target is 0

    Interrupt_INTx_SetInterruptHandler@int_obj$pf	PTR FTN()void  size(2) Largest target is 0

    interrupt_RBx_Init@int_obj	PTR const struct . size(1) Largest target is 6
		 -> int0(COMRAM[6]), int1(COMRAM[6]), int2(COMRAM[6]), int3(COMRAM[6]), 

    interrupt_RBx_Init@int_obj$pf	PTR FTN()void  size(2) Largest target is 1
		 -> toggleLED2_Low(), toggleLED3_Low(), toggleLED4_Low(), toggleLED_Low(), 

    interrupt_RBx_Init@int_obj$pf2	PTR FTN()void  size(2) Largest target is 1
		 -> toggleLED2_High(), toggleLED3_High(), toggleLED4_High(), toggleLED_High(), 

    lat_registers	PTR volatile unsigned char [5] size(2) Largest target is 4095
		 -> RAM(DATA[4095]), 

    led_initalize@led	PTR const struct . size(1) Largest target is 1
		 -> led1(COMRAM[1]), led2(COMRAM[1]), led3(COMRAM[1]), led4(COMRAM[1]), 

    led_turn_off@led	PTR const struct . size(1) Largest target is 1
		 -> led1(COMRAM[1]), led2(COMRAM[1]), led3(COMRAM[1]), led4(COMRAM[1]), 

    led_turn_on@led	PTR const struct . size(1) Largest target is 1
		 -> led1(COMRAM[1]), led2(COMRAM[1]), led3(COMRAM[1]), led4(COMRAM[1]), 

    port_registers	PTR volatile unsigned char [5] size(2) Largest target is 4095
		 -> RAM(DATA[4095]), 

    RB4_InterruptHandler_HIGH	PTR FTN()void  size(2) Largest target is 1
		 -> toggleLED2_High(), toggleLED3_High(), toggleLED4_High(), toggleLED_High(), 
		 -> NULL(), 

    RB4_InterruptHandler_LOW	PTR FTN()void  size(2) Largest target is 1
		 -> toggleLED2_Low(), toggleLED3_Low(), toggleLED4_Low(), toggleLED_Low(), 
		 -> NULL(), 

    RB5_InterruptHandler_HIGH	PTR FTN()void  size(2) Largest target is 1
		 -> toggleLED2_High(), toggleLED3_High(), toggleLED4_High(), toggleLED_High(), 
		 -> NULL(), 

    RB5_InterruptHandler_LOW	PTR FTN()void  size(2) Largest target is 1
		 -> toggleLED2_Low(), toggleLED3_Low(), toggleLED4_Low(), toggleLED_Low(), 
		 -> NULL(), 

    RB6_InterruptHandler_HIGH	PTR FTN()void  size(2) Largest target is 1
		 -> toggleLED2_High(), toggleLED3_High(), toggleLED4_High(), toggleLED_High(), 
		 -> NULL(), 

    RB6_InterruptHandler_LOW	PTR FTN()void  size(2) Largest target is 1
		 -> toggleLED2_Low(), toggleLED3_Low(), toggleLED4_Low(), toggleLED_Low(), 
		 -> NULL(), 

    RB7_InterruptHandler_HIGH	PTR FTN()void  size(2) Largest target is 1
		 -> toggleLED2_High(), toggleLED3_High(), toggleLED4_High(), toggleLED_High(), 
		 -> NULL(), 

    RB7_InterruptHandler_LOW	PTR FTN()void  size(2) Largest target is 1
		 -> toggleLED2_Low(), toggleLED3_Low(), toggleLED4_Low(), toggleLED_Low(), 
		 -> NULL(), 

    S1042$pf	PTR FTN()void  size(2) Largest target is 0

    S887$pf	PTR FTN()void  size(2) Largest target is 1
		 -> toggleLED2_Low(), toggleLED3_Low(), toggleLED4_Low(), toggleLED_Low(), 

    S887$pf2	PTR FTN()void  size(2) Largest target is 1
		 -> toggleLED2_High(), toggleLED3_High(), toggleLED4_High(), toggleLED_High(), 

    tris_registers	PTR volatile unsigned char [5] size(2) Largest target is 4095
		 -> RAM(DATA[4095]), 


Critical Paths under _main in COMRAM

    None.

Critical Paths under _InterruptManagerHigh in COMRAM

    _InterruptManagerHigh->_RB4_ISR
    _InterruptManagerHigh->_RB5_ISR
    _InterruptManagerHigh->_RB6_ISR
    _InterruptManagerHigh->_RB7_ISR
    _toggleLED_Low->_led_turn_off
    _toggleLED_High->_led_turn_on
    _toggleLED4_Low->_led_turn_off
    _toggleLED4_High->_led_turn_on
    _toggleLED3_Low->_led_turn_off
    _toggleLED3_High->_led_turn_on
    _toggleLED2_Low->_led_turn_off
    _led_turn_off->i2_gpio_pin_write_logic
    _toggleLED2_High->_led_turn_on
    _led_turn_on->i2_gpio_pin_write_logic

Critical Paths under _main in BANK0

    _main->_led_initalize
    _led_initalize->_gpio_pin_initalize
    _gpio_pin_initalize->_gpio_pin_write_logic
    _interrupt_RBx_Init->_gpio_pin_direction_initalize

Critical Paths under _InterruptManagerHigh in BANK0

    None.

Critical Paths under _main in BANK1

    None.

Critical Paths under _InterruptManagerHigh in BANK1

    None.

Critical Paths under _main in BANK2

    None.

Critical Paths under _InterruptManagerHigh in BANK2

    None.

Critical Paths under _main in BANK3

    None.

Critical Paths under _InterruptManagerHigh in BANK3

    None.

Critical Paths under _main in BANK4

    None.

Critical Paths under _InterruptManagerHigh in BANK4

    None.

Critical Paths under _main in BANK5

    None.

Critical Paths under _InterruptManagerHigh in BANK5

    None.

Critical Paths under _main in BANK6

    None.

Critical Paths under _InterruptManagerHigh in BANK6

    None.

Critical Paths under _main in BANK7

    None.

Critical Paths under _InterruptManagerHigh in BANK7

    None.

Critical Paths under _main in BANK8

    None.

Critical Paths under _InterruptManagerHigh in BANK8

    None.

Critical Paths under _main in BANK9

    None.

Critical Paths under _InterruptManagerHigh in BANK9

    None.

Critical Paths under _main in BANK10

    None.

Critical Paths under _InterruptManagerHigh in BANK10

    None.

Critical Paths under _main in BANK11

    None.

Critical Paths under _InterruptManagerHigh in BANK11

    None.

Critical Paths under _main in BANK12

    None.

Critical Paths under _InterruptManagerHigh in BANK12

    None.

Critical Paths under _main in BANK13

    None.

Critical Paths under _InterruptManagerHigh in BANK13

    None.

Critical Paths under _main in BANK14

    None.

Critical Paths under _InterruptManagerHigh in BANK14

    None.

Critical Paths under _main in BANK15

    None.

Critical Paths under _InterruptManagerHigh in BANK15

    None.

Call Graph Tables:

 ---------------------------------------------------------------------------------
 (Depth) Function   	        Calls       Base Space   Used Autos Params    Refs
 ---------------------------------------------------------------------------------
 (0) _main                                                 0     0      0   12879
                 _interrupt_RBx_Init
                      _led_initalize
 ---------------------------------------------------------------------------------
 (1) _led_initalize                                        4     3      1   11130
                                             10 BANK0      4     3      1
                 _gpio_pin_initalize
 ---------------------------------------------------------------------------------
 (2) _gpio_pin_initalize                                   2     1      1   10503
                                              8 BANK0      2     1      1
       _gpio_pin_direction_initalize
               _gpio_pin_write_logic
 ---------------------------------------------------------------------------------
 (3) _gpio_pin_write_logic                                 8     6      2    6808
                                              0 BANK0      8     6      2
 ---------------------------------------------------------------------------------
 (1) _interrupt_RBx_Init                                   4     3      1    1749
                                              7 BANK0      4     3      1
       _gpio_pin_direction_initalize
 ---------------------------------------------------------------------------------
 (3) _gpio_pin_direction_initalize                         7     6      1    1008
                                              0 BANK0      7     6      1
 ---------------------------------------------------------------------------------
 Estimated maximum stack depth 3
 ---------------------------------------------------------------------------------
 (Depth) Function   	        Calls       Base Space   Used Autos Params    Refs
 ---------------------------------------------------------------------------------
 (4) _InterruptManagerHigh                                 6     6      0   32348
                                             14 COMRAM     6     6      0
                          _EXTI0_ISR
                          _EXTI1_ISR
                          _EXTI2_ISR
                            _RB4_ISR
                            _RB5_ISR
                            _RB6_ISR
                            _RB7_ISR
 ---------------------------------------------------------------------------------
 (5) _RB7_ISR                                              3     3      0    8087
                                             11 COMRAM     3     3      0
                                NULL *
                    _toggleLED2_High *
                     _toggleLED2_Low *
                    _toggleLED3_High *
                     _toggleLED3_Low *
                    _toggleLED4_High *
                     _toggleLED4_Low *
                     _toggleLED_High *
                      _toggleLED_Low *
 ---------------------------------------------------------------------------------
 (5) _RB6_ISR                                              3     3      0    8087
                                             11 COMRAM     3     3      0
                                NULL *
                    _toggleLED2_High *
                     _toggleLED2_Low *
                    _toggleLED3_High *
                     _toggleLED3_Low *
                    _toggleLED4_High *
                     _toggleLED4_Low *
                     _toggleLED_High *
                      _toggleLED_Low *
 ---------------------------------------------------------------------------------
 (5) _RB5_ISR                                              3     3      0    8087
                                             11 COMRAM     3     3      0
                                NULL *
                    _toggleLED2_High *
                     _toggleLED2_Low *
                    _toggleLED3_High *
                     _toggleLED3_Low *
                    _toggleLED4_High *
                     _toggleLED4_Low *
                     _toggleLED_High *
                      _toggleLED_Low *
 ---------------------------------------------------------------------------------
 (5) _RB4_ISR                                              3     3      0    8087
                                             11 COMRAM     3     3      0
                                NULL *
                    _toggleLED2_High *
                     _toggleLED2_Low *
                    _toggleLED3_High *
                     _toggleLED3_Low *
                    _toggleLED4_High *
                     _toggleLED4_Low *
                     _toggleLED_High *
                      _toggleLED_Low *
 ---------------------------------------------------------------------------------
 (6) _toggleLED_Low                                        0     0      0    1007
                       _led_turn_off
 ---------------------------------------------------------------------------------
 (6) _toggleLED_High                                       0     0      0    1007
                        _led_turn_on
 ---------------------------------------------------------------------------------
 (6) _toggleLED4_Low                                       0     0      0    1007
                       _led_turn_off
 ---------------------------------------------------------------------------------
 (6) _toggleLED4_High                                      0     0      0    1007
                        _led_turn_on
 ---------------------------------------------------------------------------------
 (6) _toggleLED3_Low                                       0     0      0    1007
                       _led_turn_off
 ---------------------------------------------------------------------------------
 (6) _toggleLED3_High                                      0     0      0    1007
                        _led_turn_on
 ---------------------------------------------------------------------------------
 (6) _toggleLED2_Low                                       0     0      0    1007
                       _led_turn_off
 ---------------------------------------------------------------------------------
 (7) _led_turn_off                                         4     3      1    1007
                                              7 COMRAM     4     3      1
             i2_gpio_pin_write_logic
 ---------------------------------------------------------------------------------
 (6) _toggleLED2_High                                      0     0      0    1007
                        _led_turn_on
 ---------------------------------------------------------------------------------
 (7) _led_turn_on                                          4     3      1    1007
                                              7 COMRAM     4     3      1
             i2_gpio_pin_write_logic
 ---------------------------------------------------------------------------------
 (8) i2_gpio_pin_write_logic                               8     6      2     404
                                              0 COMRAM     7     5      2
 ---------------------------------------------------------------------------------
 (6) NULL(Fake)                                            0     0      0       0
 ---------------------------------------------------------------------------------
 (5) _EXTI2_ISR                                            0     0      0       0
 ---------------------------------------------------------------------------------
 (5) _EXTI1_ISR                                            0     0      0       0
 ---------------------------------------------------------------------------------
 (5) _EXTI0_ISR                                            0     0      0       0
 ---------------------------------------------------------------------------------
 Estimated maximum stack depth 8
 ---------------------------------------------------------------------------------

 Call Graph Graphs:

 _main (ROOT)
   _interrupt_RBx_Init
     _gpio_pin_direction_initalize
   _led_initalize
     _gpio_pin_initalize
       _gpio_pin_direction_initalize
       _gpio_pin_write_logic

 _InterruptManagerHigh (ROOT)
   _EXTI0_ISR
   _EXTI1_ISR
   _EXTI2_ISR
   _RB4_ISR
     NULL(Fake) *
     _toggleLED2_High *
       _led_turn_on
         i2_gpio_pin_write_logic
     _toggleLED2_Low *
       _led_turn_off
         i2_gpio_pin_write_logic
     _toggleLED3_High *
       _led_turn_on
     _toggleLED3_Low *
       _led_turn_off
     _toggleLED4_High *
       _led_turn_on
     _toggleLED4_Low *
       _led_turn_off
     _toggleLED_High *
       _led_turn_on
     _toggleLED_Low *
       _led_turn_off
   _RB5_ISR
     NULL(Fake) *
     _toggleLED2_High *
     _toggleLED2_Low *
     _toggleLED3_High *
     _toggleLED3_Low *
     _toggleLED4_High *
     _toggleLED4_Low *
     _toggleLED_High *
     _toggleLED_Low *
   _RB6_ISR
     NULL(Fake) *
     _toggleLED2_High *
     _toggleLED2_Low *
     _toggleLED3_High *
     _toggleLED3_Low *
     _toggleLED4_High *
     _toggleLED4_Low *
     _toggleLED_High *
     _toggleLED_Low *
   _RB7_ISR
     NULL(Fake) *
     _toggleLED2_High *
     _toggleLED2_Low *
     _toggleLED3_High *
     _toggleLED3_Low *
     _toggleLED4_High *
     _toggleLED4_Low *
     _toggleLED_High *
     _toggleLED_Low *

 Address spaces:
Name               Size   Autos  Total    Cost      Usage
BIGRAM             F7F      0       0      40        0.0%
EEDATA             400      0       0       0        0.0%
BITBANK14          100      0       0      32        0.0%
BANK14             100      0       0      33        0.0%
BITBANK13          100      0       0      30        0.0%
BANK13             100      0       0      31        0.0%
BITBANK12          100      0       0      28        0.0%
BANK12             100      0       0      29        0.0%
BITBANK11          100      0       0      26        0.0%
BANK11             100      0       0      27        0.0%
BITBANK10          100      0       0      24        0.0%
BANK10             100      0       0      25        0.0%
BITBANK9           100      0       0      22        0.0%
BANK9              100      0       0      23        0.0%
BITBANK8           100      0       0      20        0.0%
BANK8              100      0       0      21        0.0%
BITBANK7           100      0       0      18        0.0%
BANK7              100      0       0      19        0.0%
BITBANK6           100      0       0      16        0.0%
BANK6              100      0       0      17        0.0%
BITBANK5           100      0       0      14        0.0%
BANK5              100      0       0      15        0.0%
BITBANK4           100      0       0      12        0.0%
BANK4              100      0       0      13        0.0%
BITBANK3           100      0       0      10        0.0%
BANK3              100      0       0      11        0.0%
BITBANK2           100      0       0       8        0.0%
BANK2              100      0       0       9        0.0%
BITBANK1           100      0       0       6        0.0%
BANK1              100      0       0       7        0.0%
BITBANK15           80      0       0      34        0.0%
BANK15              80      0       0      35        0.0%
BITBANK0            80      0       0       4        0.0%
BANK0               80      E      28       5       31.2%
BITCOMRAM           7E      0       0       0        0.0%
COMRAM              7E     14      6E       1       87.3%
BITBIGSFRllh        6E      0       0      37        0.0%
BITBIGSFRh           D      0       0      36        0.0%
BITBIGSFRlll         1      0       0      38        0.0%
BIGSFR               0      0       0     200        0.0%
BITSFR               0      0       0     200        0.0%
SFR                  0      0       0     200        0.0%
STACK                0      0       0       2        0.0%
NULL                 0      0       0       0        0.0%
ABS                  0      0      96      39        0.0%
DATA                 0      0      96       3        0.0%
CODE                 0      0       0       0        0.0%


Microchip Technology PIC18 Macro Assembler V2.45 build 20230818022343 
Symbol Table                                                                                   Fri Nov 17 00:14:11 2023

             __end_of_interrupt_RBx_Init 17A4                                      l270 1A58  
                                    l354 143A                                      l266 1A02  
                                    l373 156C                                      l550 16AA  
                                    l392 1C42                                      l468 1BA2  
                                    l469 1BA2                                      l558 17A2  
                 ??_InterruptManagerHigh 0069                _RB5_InterruptHandler_HIGH 003A  
                                    _ret 0019                                      tosl 0FFD  
                                    wreg 0FE8                    relay_initialize@F2885 004E  
                           ?_led_turn_on 0062                          __end_of_RB4_ISR 19E4  
                        __end_of_RB5_ISR 1954                          __end_of_RB6_ISR 18C4  
                        __end_of_RB7_ISR 1834                                     l4101 17A0  
                                   l4061 1A06                                     l4063 1A38  
                                   l4081 16DA                                     l4073 1690  
                                   l4065 1A3A                                     l4057 19E4  
                                   l4091 1730                                     l4083 16E8  
                                   l4075 16A2                                     l4067 1A4C  
                                   l4059 19FA                                     l4085 16FE  
                                   l4077 16B6                                     l4069 1A54  
                                   l4087 170C                                     l4079 16C4  
                                   l4095 1746                                     l4089 1722  
                                   l4097 1790                                     l4099 179E  
                                   l3831 134E                                     l3823 12F4  
                                   l3911 1C1A                                     l3833 13A6  
                                   l3841 1438                                     l3825 130A  
                                   l3913 1C40                                     l3827 132A  
                                   l3851 1452                                     l3907 1C00  
                                   l3829 1346                                     l3853 1472  
                                   l3909 1C12                                     l4637 1B42  
                                   l3839 13F8                                     l3855 148E  
                                   l4921 1554                                     l3857 1496  
                                   l3865 1540                                     l3849 143C  
                                   l4923 176A                                     l3859 14E8  
                                   l3867 156A                                     l4925 1422  
                                   u3310 130A                                     u3311 1306  
                                   u3320 132A                                     u3400 148E  
                                   u3321 1326                                     u3401 148A  
                                   u3330 1346                                     u3331 1342  
                                   u3414 14B4                                     u3415 14B0  
                                   u3360 140E                                     u3344 136C  
                                   u3600 16A2                                     u3424 1506  
                                   u3361 1408                                     u3345 1368  
                                   u3601 169E                                     u3425 1502  
                                   u3370 1410                                     u3354 13C4  
                                   u3355 13C0                                     u3380 1452  
                                   u3381 144E                                     u3390 1472  
                                   u3470 1C12                                     u3391 146E  
                                   u3471 1C0E                                     u3580 19FA  
                                   u3581 19F6                                     u3595 1A48  
                                   u3597 1A4C                 _RB4_InterruptHandler_LOW 0044  
                                   _led1 0035                                     _led2 0034  
                                   _led3 0033                                     _led4 0032  
                                   _int0 002C                                     _int1 0026  
                                   _int2 0020                                     _int3 001A  
                                   _main 1B42                 _RB7_InterruptHandler_LOW 003E  
                                   fsr2h 0FDA                                     indf2 0FDF  
                                   fsr1l 0FE1                                     fsr2l 0FD9  
                                   btemp 006F                                     prodh 0FF4  
                                   prodl 0FF3                                     start 000E  
                         ?_led_initalize 00A4                            ?_led_turn_off 0062  
                           ___param_bank 0000                     _gpio_pin_write_logic 143C  
                                  ?_main 005B                                    i2l280 1A76  
                                  i2l273 1AEA                                    i2l284 1ACC  
                                  i2l373 168E                                    i2l277 1B40  
                                  i2l480 1CB6                                    i2l474 1CC2  
                                  i2l730 1050                                    i2l483 1CE6  
                                  i2l492 1C9E                                    i2l740 1170  
                                  i2l732 1074                                    i2l653 1CFE  
                                  i2l661 1CF6                                    i2l477 1CF2  
                                  i2l486 1CAA                                    i2l670 19E2  
                                  i2l742 11B8                                    i2l734 1098  
                                  i2l495 1CCE                                    i2l751 12D8  
                                  i2l744 1200                                    i2l736 10E0  
                                  i2l657 1CFA                                    i2l489 1CDA  
                                  i2l745 12D8                                    i2l746 1248  
                                  i2l738 1128                                    i2l748 1290  
                                  i2l679 1952                                    i2l688 18C2  
                                  i2l697 1832                      relay_turn_off@F2895 004C  
                        ??_toggleLED_Low 0066                                    pclath 0FFA  
                                  pclatu 0FFB                                    tablat 0FF5  
                                  ttemp5 0070                                    ttemp6 0073  
                                  ttemp7 0077                         led_initalize@led 00A4  
                                  status 0FD8                                    wtemp8 0070  
                         ??_led_turn_off 0063                          __initialization 1BAA  
                           __end_of_main 1BAA                    ?_gpio_pin_write_logic 009A  
            i2gpio_pin_write_logic@logic 005C                            _lat_registers 0001  
                                 ??_main 00A8                            __activetblptr 0003  
                       led_turn_on@F2896 0051                                ??_RB4_ISR 0066  
                 _EXTI0_InterruptHandler 004A                                ??_RB5_ISR 0066  
                              ??_RB6_ISR 0066                                ??_RB7_ISR 0066  
                      __end_of_EXTI0_ISR 1D00                        __end_of_EXTI1_ISR 1CFC  
                      __end_of_EXTI2_ISR 1CF8                                   i2l4001 1CA0  
                                 i2l4003 1CD0                                   i2l4005 1C94  
                                 i2l4007 1CC4                                   i2l4111 195C  
                                 i2l4113 196E                                   i2l4121 19B8  
                                 i2l4115 198A                                   i2l4131 18DE  
                                 i2l4117 199C                                   i2l4109 1956  
                                 i2l4133 18FA                                   i2l4135 190C  
                                 i2l4127 18C6                                   i2l4151 186A  
                                 i2l4129 18CC                                   i2l4153 187C  
                                 i2l4145 1836                                   i2l4139 1928  
                                 i2l4147 183C                                   i2l4171 17EC  
                                 i2l4163 17A6                                   i2l1773 1CF8  
                                 i2l4149 184E                                   i2l4157 1898  
                                 i2l4165 17AC                                   i2l4167 17BE  
                                 i2l4175 1808                                   i2l1769 1CFC  
                                 i2l1777 1CF4                                   i2l3801 156E  
                                 i2l4169 17DA                                   i2l3811 160E  
                                 i2l3803 157E                                   i2l3805 159E  
                                 i2l3901 1ABE                                   i2l4701 1136  
                                 i2l3807 15BA                                   i2l3903 1ACA  
                                 i2l4711 117E                                   i2l4703 1144  
                                 i2l3809 15BE                                   i2l3817 1664  
                                 i2l4721 11C6                                   i2l4713 118C  
                                 i2l4705 1152                                   i2l4731 120E  
                                 i2l4723 11D4                                   i2l4715 119A  
                                 i2l4707 1162                                   i2l4741 1256  
                                 i2l4733 121C                                   i2l4725 11E2  
                                 i2l4717 11AA                                   i2l4709 1168  
                                 i2l4751 129E                                   i2l4743 1264  
                                 i2l4735 122A                                   i2l4727 11F2  
                                 i2l4719 11B0                                   i2l4671 1048  
                                 i2l3881 1B20                                   i2l4753 12AC  
                                 i2l4745 1272                                   i2l4737 123A  
                                 i2l4729 11F8                                   i2l4681 10A6  
                                 i2l4673 105E                                   i2l3883 1B22  
                                 i2l3875 1ACE                                   i2l3891 1A5A  
                                 i2l4931 193C                                   i2l4755 12BA  
                                 i2l4747 1282                                   i2l4739 1240  
                                 i2l4691 10EE                                   i2l4683 10B4  
                                 i2l4675 106C                                   i2l4667 102C  
                                 i2l3885 1B32                                   i2l3877 1AE2  
                                 i2l3893 1A6E                                   i2l4933 19CC  
                                 i2l4757 12CA                                   i2l4749 1288  
                                 i2l4693 10FC                                   i2l4685 10C2  
                                 i2l4677 1082                                   i2l4669 103A  
                                 i2l4935 1678                                   i2l3879 1AEE  
                                 i2l3887 1B3E                                   i2l3895 1A7A  
                                 i2l4927 181C                                   i2l4759 12D0  
                                 i2l4695 110A                                   i2l4687 10D2  
                                 i2l4679 1090                                   i2l3897 1AAC  
                                 i2l3993 1CB8                                   i2l4929 18AC  
                                 i2l4697 111A                                   i2l4689 10D8  
                                 i2l3899 1AAE                                   i2l3995 1CE8  
                                 i2l4699 1120                                   i2l3997 1CAC  
                                 i2l3999 1CDC                          ??_led_initalize 00A5  
                       ??_toggleLED2_Low 0066                         ??_toggleLED3_Low 0066  
                       ??_toggleLED4_Low 0066                                   clear_0 1BF0  
                                 isa$std 0001                         ??_toggleLED_High 0066  
                           __pdataCOMRAM 0001                             __mediumconst 0000  
                                 tblptrh 0FF7                                   tblptrl 0FF6  
                                 tblptru 0FF8                               __accesstop 0080  
                __end_of__initialization 1BF6                            ___rparam_used 0001  
                 ??_gpio_pin_write_logic 009C                           __pcstackCOMRAM 005B  
                           __pidataBANK0 1C79                 dc_motor_initialize@F2890 005A  
               dc_motor_initialize@F2892 0059                       fp__toggleLED2_High 0000  
                     fp__toggleLED3_High 0000                       fp__toggleLED4_High 0000  
                   __end_of_led_turn_off 1ACE                       _interrupt_RBx_Init 1690  
                    ?_interrupt_RBx_Init 00A1                   _EXTI1_InterruptHandler 0048  
                      led_turn_off@F2901 0050                     ??_interrupt_RBx_Init 00A2  
                        led_toggle@F2906 004F                 dc_motor_move_right@F2897 0058  
               dc_motor_move_right@F2899 0057                                  _RB4_ISR 1954  
                                _RB5_ISR 18C4                                  _RB6_ISR 1834  
                                _RB7_ISR 17A4                _RB6_InterruptHandler_HIGH 0038  
                  gpio_pin_initalize@ret 00A3                        led_turn_on@status 0064  
                             _btn_values 1001                           _tris_registers 000B  
               _RB6_InterruptHandler_LOW 0040  gpio_pin_direction_initalize@_pin_config 009A  
              interrupt_RBx_Init@int_obj 00A1                                  __Hparam 0000  
                                __Lparam 0000               __end_of_gpio_pin_initalize 1C44  
                           __psmallconst 1000                                  __pcinit 1BAA  
                                __ramtop 1000                                  __ptext0 1B42  
                                __ptext1 19E4                                  __ptext2 1C00  
                                __ptext3 143C                                  __ptext4 1690  
                                __ptext5 12F4                                  __ptext7 17A4  
                                __ptext8 1834                                  __ptext9 18C4  
                      ??_toggleLED2_High 0066                        ??_toggleLED3_High 0066  
                      ??_toggleLED4_High 0066                 ??i2_gpio_pin_write_logic 005D  
                         __pintcode_body 1012                     end_of_initialization 1BF6  
                              _EXTI0_ISR 1CFC                                _EXTI1_ISR 1CF8  
                              _EXTI2_ISR 1CF4                                _RB4_enter 0018  
                  __end_of_toggleLED_Low 1CC4                                _RB5_enter 0017  
                                int_func 1012                       led_initalize@F2891 0052  
                              _RB6_enter 0016                                _RB7_enter 0015  
                     dc_motor_stop@F2911 0054                       dc_motor_stop@F2913 0053  
                         RB4_ISR@RB4_Int 0068                      led_turn_on@pin_init 0065  
                                postdec1 0FE5                                  postdec2 0FDD  
                                postinc0 0FEE                                  postinc2 0FDE  
                              _PORTBbits 0F81     __end_of_gpio_pin_direction_initalize 143C  
           _gpio_pin_direction_initalize 12F4                   _EXTI2_InterruptHandler 0046  
                             ?_EXTI0_ISR 005B                               ?_EXTI1_ISR 005B  
                             ?_EXTI2_ISR 005B                    __end_of_led_initalize 1A5A  
                           _led_turn_off 1A5A                           RB5_ISR@RB5_Int 0068  
                     relay_turn_on@F2890 004D                            __pidataCOMRAM 1C44  
                    start_initialization 1BAA                            ??_led_turn_on 0063  
          ?_gpio_pin_direction_initalize 009A                  dc_motor_move_left@F2904 0056  
                dc_motor_move_left@F2906 0055                          led_turn_off@led 0062  
                         RB6_ISR@RB6_Int 0068                              __pdataBANK0 0080  
                               ?_RB4_ISR 005B                                 ?_RB5_ISR 005B  
                               ?_RB6_ISR 005B                                 ?_RB7_ISR 005B  
                            __pbssCOMRAM 0036                            __pcstackBANK0 009A  
     gpio_pin_direction_initalize@status 00A0                        fp__toggleLED2_Low 0000  
                      fp__toggleLED3_Low 0000                        fp__toggleLED4_Low 0000  
                            ??_EXTI0_ISR 005B                              ??_EXTI1_ISR 005B  
                            ??_EXTI2_ISR 005B                        fp__toggleLED_High 0000  
                    __end_of_led_turn_on 1B42            gpio_pin_initalize@_pin_config 00A2  
           __end_of_InterruptManagerHigh 12F4                          _toggleLED2_High 1CDC  
                        _toggleLED3_High 1CD0                           RB7_ISR@RB7_Int 0068  
                        _toggleLED4_High 1CC4                                __pintcode 0008  
                 i2_gpio_pin_write_logic 156E        i2gpio_pin_write_logic@_pin_config 005B  
        gpio_pin_write_logic@_pin_config 009A                gpio_pin_write_logic@logic 009B  
                            __smallconst 1000                _RB4_InterruptHandler_HIGH 003C  
              _RB7_InterruptHandler_HIGH 0036                       _gpio_pin_initalize 1C00  
         ??_gpio_pin_direction_initalize 009B                      ?_gpio_pin_initalize 00A2  
               _RB5_InterruptHandler_LOW 0042                                 i2u330_44 162C  
                               i2u330_45 1628                                 i2u326_40 157E  
                               i2u430_40 1090                                 i2u326_41 157A  
                               i2u430_41 108C                                 i2u327_40 159E  
                               i2u343_40 1AE2                                 i2u431_40 10A6  
                               i2u327_41 159A                                 i2u343_41 1ADE  
                               i2u431_41 10A2                                 i2u328_40 15BA  
                               i2u440_40 1144                                 i2u432_40 10B4  
                               i2u328_41 15B6                                 i2u440_41 1140  
                               i2u432_41 10B0                                 i2u344_45 1B30  
                               i2u344_47 1B32                                 i2u345_40 1A6E  
                               i2u361_40 196E                                 i2u441_40 1152  
                               i2u433_40 10C2                                 i2u425_40 103A  
                               i2u345_41 1A6A                                 i2u361_41 196A  
                               i2u441_41 114E                                 i2u433_41 10BE  
                               i2u425_41 1036                                 i2u329_44 15DC  
                               i2u329_45 15D8                                 i2u450_40 11F2  
                               i2u442_40 1162                                 i2u434_40 10D2  
                               i2u426_40 1048                                 i2u450_41 11EE  
                               i2u442_41 115E                                 i2u434_41 10CE  
                               i2u426_41 1044                                 i2u346_45 1ABC  
                               i2u346_47 1ABE                                 i2u363_40 199C  
                               i2u362_48 1974                                 i2u371_40 187C  
                               i2u370_48 1854                                 i2u451_40 120E  
                               i2u443_40 117E                                 i2u435_40 10EE  
                               i2u427_40 105E                                 i2u363_41 1998  
                               i2u362_49 1986                                 i2u371_41 1878  
                               i2u370_49 1866                                 i2u451_41 120A  
                               i2u443_41 117A                                 i2u435_41 10EA  
                               i2u427_41 105A                                 i2u460_40 12AC  
                               i2u452_40 121C                                 i2u444_40 118C  
                               i2u436_40 10FC                                 i2u428_40 106C  
                               i2u460_41 12A8                                 i2u452_41 1218  
                               i2u444_41 1188                                 i2u436_41 10F8  
                               i2u428_41 1068                                 i2u364_48 19A2  
                               i2u365_40 18DE                                 i2u372_48 1882  
                               i2u373_40 17BE                                 i2u461_40 12BA  
                               i2u453_40 122A                                 i2u445_40 119A  
                               i2u437_40 110A                                 i2u429_40 1082  
                               i2u364_49 19B4                                 i2u365_41 18DA  
                               i2u372_49 1894                                 i2u373_41 17BA  
                               i2u461_41 12B6                                 i2u453_41 1226  
                               i2u445_41 1196                                 i2u437_41 1106  
                               i2u429_41 107E                                 i2u462_40 12CA  
                               i2u454_40 123A                                 i2u446_40 11AA  
                               i2u438_40 111A                                 i2u462_41 12C6  
                               i2u454_41 1236                                 i2u446_41 11A6  
                               i2u438_41 1116                                 i2u367_40 190C  
                               i2u366_48 18E4                                 i2u375_40 17EC  
                               i2u374_48 17C4                                 i2u455_40 1256  
                               i2u447_40 11C6                                 i2u439_40 1136  
                               i2u367_41 1908                                 i2u366_49 18F6  
                               i2u375_41 17E8                                 i2u374_49 17D6  
                               i2u455_41 1252                                 i2u447_41 11C2  
                               i2u439_41 1132                                 i2u456_40 1264  
                               i2u448_40 11D4                                 i2u456_41 1260  
                               i2u448_41 11D0                                 i2u368_48 1912  
                               i2u369_40 184E                                 i2u376_48 17F2  
                               i2u457_40 1272                                 i2u449_40 11E2  
                               i2u368_49 1924                                 i2u369_41 184A  
                               i2u376_49 1804                                 i2u457_41 126E  
                               i2u449_41 11DE                                 i2u458_40 1282  
                               i2u458_41 127E                                 i2u459_40 129E  
                               i2u459_41 129A                       led_turn_off@status 0064  
                   ??_gpio_pin_initalize 00A3                              _led_turn_on 1ACE  
                            _INTCON2bits 0FF1                              _INTCON3bits 0FF0  
                              copy_data0 1BBE                                copy_data1 1BDE  
                __end_of_toggleLED2_High 1CE8                  __end_of_toggleLED3_High 1CDC  
                __end_of_toggleLED4_High 1CD0                           led_turn_on@led 0062  
                               __Hrparam 0000                                 __Lrparam 0000  
                     __end_of_btn_values 1011                    led_initalize@pin_init 00A7  
                       fp__toggleLED_Low 0000                                 _lcd_4bit 0094  
                               _lcd_8bit 008A                           _toggleLED2_Low 1CAC  
                   _InterruptManagerHigh 0008                           _toggleLED3_Low 1CA0  
                         _toggleLED4_Low 1C94                                 __ptext10 1954  
                               __ptext11 1C94                                 __ptext20 1ACE  
                               __ptext12 1CA0                                 __ptext21 156E  
                               __ptext13 1CAC                                 __ptext22 1CF4  
                               __ptext14 1CB8                                 __ptext23 1CF8  
                               __ptext15 1CC4                                 __ptext24 1CFC  
                               __ptext16 1CD0                                 __ptext25 0000  
                               __ptext17 1CDC                                 __ptext18 1CE8  
                               __ptext19 1A5A                           _toggleLED_High 1CE8  
                               isa$xinst 0000                                 int$flags 006F  
                 __end_of_toggleLED2_Low 1CB8                   __end_of_toggleLED3_Low 1CAC  
                 __end_of_toggleLED4_Low 1CA0                               _INTCONbits 0FF2  
                  ?_InterruptManagerHigh 005B                   __end_of_toggleLED_High 1CF4  
           __end_of_gpio_pin_write_logic 156E                                 intlevel2 0000  
                       ?_toggleLED2_High 005B                         ?_toggleLED3_High 005B  
                       ?_toggleLED4_High 005B                            _toggleLED_Low 1CB8  
                  interrupt_RBx_Init@ret 00A4                  ?i2_gpio_pin_write_logic 005B  
                   led_turn_off@pin_init 0065                      led_initalize@status 00A6  
                         _port_registers 0080                          ?_toggleLED2_Low 005B  
             gpio_pin_write_logic@status 00A1                          ?_toggleLED3_Low 005B  
                        ?_toggleLED4_Low 005B                          ?_toggleLED_High 005B  
                         ?_toggleLED_Low 005B           __end_ofi2_gpio_pin_write_logic 1690  
                          _led_initalize 19E4  
