

Microchip MPLAB XC8 Assembler V2.45 build 20230818022343 
                                                                                               Wed Dec 13 18:33:01 2023

Microchip MPLAB XC8 C Compiler v2.45 (Free license) build 20230818022343 Og1 
     1                           	processor	18F4620
     2                           	fnconf	rparam,??,?,0
     3                           	pagewidth 120
     4                           	opt	flic
     5                           	psect	idataCOMRAM,global,class=CODE,delta=1,noexec
     6                           	psect	idataBANK0,global,class=CODE,delta=1,noexec
     7                           	psect	smallconst,global,reloc=2,class=SMALLCONST,delta=1,noexec
     8                           	psect	nvCOMRAM,global,class=COMRAM,space=1,delta=1,lowdata,noexec
     9                           	psect	cinit,global,reloc=2,class=CODE,delta=1
    10                           	psect	bssCOMRAM,global,class=COMRAM,space=1,delta=1,lowdata,noexec
    11                           	psect	dataCOMRAM,global,class=COMRAM,space=1,delta=1,lowdata,noexec
    12                           	psect	dataBANK0,global,class=BANK0,space=1,delta=1,lowdata,noexec
    13                           	psect	cstackBANK0,global,class=BANK0,space=1,delta=1,lowdata,noexec
    14                           	psect	cstackCOMRAM,global,class=COMRAM,space=1,delta=1,lowdata,noexec
    15                           	psect	text0,global,reloc=2,class=CODE,delta=1
    16                           	psect	text1,global,reloc=2,class=CODE,delta=1
    17                           	psect	text2,global,reloc=2,class=CODE,delta=1
    18                           	psect	text3,global,reloc=2,class=CODE,delta=1
    19                           	psect	text4,global,reloc=2,class=CODE,delta=1,inline
    20                           	psect	text5,global,reloc=2,class=CODE,delta=1,inline
    21                           	psect	text6,global,reloc=2,class=CODE,delta=1,inline
    22                           	psect	text7,global,reloc=2,class=CODE,delta=1,inline
    23                           	psect	text8,global,reloc=2,class=CODE,delta=1
    24                           	psect	text9,global,reloc=2,class=CODE,delta=1
    25                           	psect	text10,global,reloc=2,class=CODE,delta=1
    26                           	psect	intcode,global,reloc=2,class=CODE,delta=1
    27                           	psect	intcode_body,global,reloc=2,class=CODE,delta=1
    28                           	psect	text12,global,reloc=2,class=CODE,delta=1
    29                           	psect	text13,global,reloc=2,class=CODE,delta=1
    30                           	psect	text14,global,reloc=2,class=CODE,delta=1
    31                           	psect	text15,global,reloc=2,class=CODE,delta=1
    32                           	psect	text16,global,reloc=2,class=CODE,delta=1
    33                           	psect	text17,global,reloc=2,class=CODE,delta=1
    34                           	psect	text18,global,reloc=2,class=CODE,delta=1
    35                           	psect	text19,global,reloc=2,class=CODE,delta=1
    36                           	psect	text20,global,reloc=2,class=CODE,delta=1
    37                           	psect	text21,global,reloc=2,class=CODE,delta=1
    38                           	psect	text22,global,reloc=2,class=CODE,delta=1
    39                           	psect	text23,global,reloc=2,class=CODE,delta=1
    40                           	psect	text24,global,reloc=2,class=CODE,delta=1
    41                           	psect	text25,global,reloc=2,class=CODE,delta=1
    42                           	psect	text26,global,reloc=2,class=CODE,delta=1
    43                           	psect	text27,global,reloc=2,class=CODE,delta=1
    44                           	psect	intsave_regs,global,class=BIGRAM,space=1,delta=1,noexec
    45                           	psect	rparam,global,class=COMRAM,space=1,delta=1,noexec
    46                           	psect	temp,global,ovrld,common,class=COMRAM,space=1,delta=1
    47                           	psect	config,global,abs,ovrld,class=CONFIG,space=4,delta=1,noexec
    48   000000                     
    49                           ; Generated 23/03/2023 GMT
    50                           ; 
    51                           ; Copyright © 2023, Microchip Technology Inc. and its subsidiaries ("Microchip")
    52                           ; All rights reserved.
    53                           ; 
    54                           ; This software is developed by Microchip Technology Inc. and its subsidiaries ("Microch
      +                          ip").
    55                           ; 
    56                           ; Redistribution and use in source and binary forms, with or without modification, are
    57                           ; permitted provided that the following conditions are met:
    58                           ; 
    59                           ;     1. Redistributions of source code must retain the above copyright notice, this lis
      +                          t of
    60                           ;        conditions and the following disclaimer.
    61                           ; 
    62                           ;     2. Redistributions in binary form must reproduce the above copyright notice, this 
      +                          list
    63                           ;        of conditions and the following disclaimer in the documentation and/or other
    64                           ;        materials provided with the distribution. Publication is not required when
    65                           ;        this file is used in an embedded application.
    66                           ; 
    67                           ;     3. Microchip's name may not be used to endorse or promote products derived from th
      +                          is
    68                           ;        software without specific prior written permission.
    69                           ; 
    70                           ; THIS SOFTWARE IS PROVIDED BY MICROCHIP "AS IS" AND ANY EXPRESS OR IMPLIED WARRANTIES,
    71                           ; INCLUDING, BUT NOT LIMITED TO, THE IMPLIED WARRANTIES OF MERCHANTABILITY AND FITNESS F
      +                          OR
    72                           ; PURPOSE ARE DISCLAIMED.  IN NO EVENT SHALL MICROCHIP BE LIABLE FOR ANY DIRECT, INDIREC
      +                          T,
    73                           ; INCIDENTAL, SPECIAL, EXEMPLARY, OR CONSEQUENTIAL DAMAGES (INCLUDING BUT NOT LIMITED TO
    74                           ; PROCUREMENT OF SUBSTITUTE GOODS OR SERVICES; LOSS OF USE, DATA OR PROFITS; OR BUSINESS
    75                           ; INTERRUPTION) HOWSOEVER CAUSED AND ON ANY THEORY OF LIABILITY, WHETHER IN CONTRACT, ST
      +                          RICT
    76                           ; LIABILITY, OR TORT (INCLUDING NEGLIGENCE OR OTHERWISE) ARISING IN ANY WAY OUT OF THE U
      +                          SE OF
    77                           ; THIS SOFTWARE, EVEN IF ADVISED OF THE POSSIBILITY OF SUCH DAMAGE.
    78                           ; 
    79                           ; 
    80                           ; Code-generator required, PIC18F4620 Definitions
    81                           ; 
    82                           ; SFR Addresses
    83   000000                     
    84                           	psect	idataCOMRAM
    85   001B02                     __pidataCOMRAM:
    86                           	callstack 0
    87                           
    88                           ;initializer for _lat_registers
    89   001B02  89                 	db	137
    90   001B03  0F                 	db	15
    91   001B04  8A                 	db	138
    92   001B05  0F                 	db	15
    93   001B06  8B                 	db	139
    94   001B07  0F                 	db	15
    95   001B08  8C                 	db	140
    96   001B09  0F                 	db	15
    97   001B0A  8D                 	db	141
    98   001B0B  0F                 	db	15
    99                           
   100                           ;initializer for _tris_registers
   101   001B0C  92                 	db	146
   102   001B0D  0F                 	db	15
   103   001B0E  93                 	db	147
   104   001B0F  0F                 	db	15
   105   001B10  94                 	db	148
   106   001B11  0F                 	db	15
   107   001B12  95                 	db	149
   108   001B13  0F                 	db	15
   109   001B14  96                 	db	150
   110   001B15  0F                 	db	15
   111                           
   112                           ;initializer for _lcd_4bit
   113   001B16  02                 	db	2
   114   001B17  0A                 	db	10
   115   001B18  12                 	db	18
   116   001B19  1A                 	db	26
   117   001B1A  22                 	db	34
   118   001B1B  2A                 	db	42
   119                           
   120                           ;initializer for _RB7_enter
   121   001B1C  01                 	db	1
   122                           
   123                           ;initializer for _RB6_enter
   124   001B1D  01                 	db	1
   125                           
   126                           ;initializer for _RB5_enter
   127   001B1E  01                 	db	1
   128                           
   129                           ;initializer for _RB4_enter
   130   001B1F  01                 	db	1
   131                           
   132                           ;initializer for adc_input_channel_port_configure@F2980
   133   001B20  40                 	db	64
   134                           
   135                           ;initializer for _spi_obj
   136   001B21  41                 	db	65
   137   001B22  83                 	db	131
   138                           
   139                           ;initializer for __pin4
   140   001B23  9B                 	db	155
   141                           
   142                           ;initializer for __pin3
   143   001B24  93                 	db	147
   144                           
   145                           ;initializer for __pin2
   146   001B25  8B                 	db	139
   147                           
   148                           	psect	idataBANK0
   149   001B26                     __pidataBANK0:
   150                           	callstack 0
   151                           
   152                           ;initializer for _port_registers
   153   001B26  80                 	db	128
   154   001B27  0F                 	db	15
   155   001B28  81                 	db	129
   156   001B29  0F                 	db	15
   157   001B2A  82                 	db	130
   158   001B2B  0F                 	db	15
   159   001B2C  83                 	db	131
   160   001B2D  0F                 	db	15
   161   001B2E  84                 	db	132
   162   001B2F  0F                 	db	15
   163                           
   164                           ;initializer for _lcd_8bit
   165   001B30  32                 	db	50
   166   001B31  3A                 	db	58
   167   001B32  03                 	db	3
   168   001B33  0B                 	db	11
   169   001B34  13                 	db	19
   170   001B35  1B                 	db	27
   171   001B36  23                 	db	35
   172   001B37  2B                 	db	43
   173   001B38  33                 	db	51
   174   001B39  3B                 	db	59
   175                           
   176                           	psect	smallconst
   177   001000                     __psmallconst:
   178                           	callstack 0
   179   001000  00                 	db	0
   180   001001                     _btn_values:
   181                           	callstack 0
   182   001001  37                 	db	55
   183   001002  38                 	db	56
   184   001003  39                 	db	57
   185   001004  2F                 	db	47
   186   001005  34                 	db	52
   187   001006  35                 	db	53
   188   001007  36                 	db	54
   189   001008  2A                 	db	42
   190   001009  31                 	db	49
   191   00100A  32                 	db	50
   192   00100B  33                 	db	51
   193   00100C  2D                 	db	45
   194   00100D  23                 	db	35
   195   00100E  30                 	db	48
   196   00100F  3D                 	db	61
   197   001010  2B                 	db	43
   198   001011                     __end_of_btn_values:
   199                           	callstack 0
   200   000000                     _SPBRGH	set	4016
   201   000000                     _SPBRG	set	4015
   202   000000                     _TXREG	set	4013
   203   000000                     _TXSTAbits	set	4012
   204   000000                     _RCREG	set	4014
   205   000000                     _TMR2	set	4044
   206   000000                     _T2CONbits	set	4042
   207   000000                     _TMR1L	set	4046
   208   000000                     _TMR1H	set	4047
   209   000000                     _T1CONbits	set	4045
   210   000000                     _TMR0L	set	4054
   211   000000                     _TMR0H	set	4055
   212   000000                     _T0CONbits	set	4053
   213   000000                     _INTCON2bits	set	4081
   214   000000                     _INTCON3bits	set	4080
   215   000000                     _SSPADD	set	4040
   216   000000                     _SSPBUF	set	4041
   217   000000                     _SSPCON2bits	set	4037
   218   000000                     _SSPSTATbits	set	4039
   219   000000                     _SSPCON1bits	set	4038
   220   000000                     _CCPR2H	set	4028
   221   000000                     _CCPR2L	set	4027
   222   000000                     _CCPR1H	set	4031
   223   000000                     _CCPR1L	set	4030
   224   000000                     _INTCONbits	set	4082
   225   000000                     _ADRESH	set	4036
   226   000000                     _ADRESL	set	4035
   227   000000                     _ADCON1bits	set	4033
   228   000000                     _PR2	set	4043
   229   001011  00                 	db	0	; dummy byte at the end
   230   000000                     
   231                           	psect	nvCOMRAM
   232   00007B                     __pnvCOMRAM:
   233                           	callstack 0
   234   00007B                     _ret:
   235                           	callstack 0
   236   00007B                     	ds	1
   237   000000                     _PORTBbits	set	3969
   238   000000                     _TRISCbits	set	3988
   239   000000                     _CCP2CONbits	set	4026
   240   000000                     _CCP1CONbits	set	4029
   241   000000                     _ADCON2bits	set	4032
   242   000000                     _ADCON0bits	set	4034
   243   000000                     _PIE1bits	set	3997
   244   000000                     _PIR1bits	set	3998
   245   000000                     _PIE2bits	set	4000
   246   000000                     _PIR2bits	set	4001
   247   000000                     _EECON1bits	set	4006
   248   000000                     _T3CONbits	set	4017
   249   000000                     _TMR3L	set	4018
   250   000000                     _TMR3H	set	4019
   251   000000                     _BAUDCONbits	set	4024
   252   000000                     _RCSTAbits	set	4011
   253   000000                     _TRISAbits	set	3986
   254                           
   255                           ; #config settings
   256                           
   257                           	psect	cinit
   258   001846                     __pcinit:
   259                           	callstack 0
   260   001846                     start_initialization:
   261                           	callstack 0
   262   001846                     __initialization:
   263                           	callstack 0
   264                           
   265                           ; Initialize objects allocated to BANK0 (20 bytes)
   266                           ; load TBLPTR registers with __pidataBANK0
   267   001846  0E26               	movlw	low __pidataBANK0
   268   001848  6EF6               	movwf	tblptrl,c
   269   00184A  0E1B               	movlw	high __pidataBANK0
   270   00184C  6EF7               	movwf	tblptrh,c
   271   00184E  0E00               	movlw	low (__pidataBANK0 shr (0+16))
   272   001850  6EF8               	movwf	tblptru,c
   273   001852  EE00  F080         	lfsr	0,__pdataBANK0
   274   001856  EE10 F014          	lfsr	1,20
   275   00185A                     copy_data0:
   276   00185A  0009               	tblrd		*+
   277   00185C  CFF5 FFEE          	movff	tablat,postinc0
   278   001860  50E5               	movf	postdec1,w,c
   279   001862  50E1               	movf	fsr1l,w,c
   280   001864  E1FA               	bnz	copy_data0
   281                           
   282                           ; Initialize objects allocated to COMRAM (36 bytes)
   283                           ; load TBLPTR registers with __pidataCOMRAM
   284   001866  0E02               	movlw	low __pidataCOMRAM
   285   001868  6EF6               	movwf	tblptrl,c
   286   00186A  0E1B               	movlw	high __pidataCOMRAM
   287   00186C  6EF7               	movwf	tblptrh,c
   288   00186E  0E00               	movlw	low (__pidataCOMRAM shr (0+16))
   289   001870  6EF8               	movwf	tblptru,c
   290   001872  EE00  F048         	lfsr	0,__pdataCOMRAM
   291   001876  EE10 F024          	lfsr	1,36
   292   00187A                     copy_data1:
   293   00187A  0009               	tblrd		*+
   294   00187C  CFF5 FFEE          	movff	tablat,postinc0
   295   001880  50E5               	movf	postdec1,w,c
   296   001882  50E1               	movf	fsr1l,w,c
   297   001884  E1FA               	bnz	copy_data1
   298                           
   299                           ; Clear objects allocated to COMRAM (71 bytes)
   300   001886  EE00  F001         	lfsr	0,__pbssCOMRAM
   301   00188A  0E47               	movlw	71
   302   00188C                     clear_0:
   303   00188C  6AEE               	clrf	postinc0,c
   304   00188E  06E8               	decf	wreg,f,c
   305   001890  E1FD               	bnz	clear_0
   306   001892                     end_of_initialization:
   307                           	callstack 0
   308   001892                     __end_of__initialization:
   309                           	callstack 0
   310   001892  907C               	bcf	int$flags,0,c	;clear compiler interrupt flag (level 1)
   311   001894  927C               	bcf	int$flags,1,c	;clear compiler interrupt flag (level 2)
   312   001896  0100               	movlb	0
   313   001898  EF5B  F00B         	goto	_main	;jump to C main() function
   314                           
   315                           	psect	bssCOMRAM
   316   000001                     __pbssCOMRAM:
   317                           	callstack 0
   318   000001                     _EUSART_OVERRUN_ERROR_HANDLER:
   319                           	callstack 0
   320   000001                     	ds	2
   321   000003                     _EUSART_FRAMING_ERROR_HANDLER:
   322                           	callstack 0
   323   000003                     	ds	2
   324   000005                     _EUSART_RX_INTERRUPT_HANDLER:
   325                           	callstack 0
   326   000005                     	ds	2
   327   000007                     _EUSART_TX_INTERRUPT_HANDLER:
   328                           	callstack 0
   329   000007                     	ds	2
   330   000009                     _Timer3Preload:
   331                           	callstack 0
   332   000009                     	ds	2
   333   00000B                     _TIMER3_OVF_INTERRUPT_HANDELER:
   334                           	callstack 0
   335   00000B                     	ds	2
   336   00000D                     	ds	2
   337   00000F                     _Timer1Preload:
   338                           	callstack 0
   339   00000F                     	ds	2
   340   000011                     _TIMER1_OVF_INTERRUPT_HANDELER:
   341                           	callstack 0
   342   000011                     	ds	2
   343   000013                     _preloadValue:
   344                           	callstack 0
   345   000013                     	ds	2
   346   000015                     _TIMER0_INTERRUTP_HANDELER:
   347                           	callstack 0
   348   000015                     	ds	2
   349   000017                     _RB7_InterruptHandler_HIGH:
   350                           	callstack 0
   351   000017                     	ds	2
   352   000019                     _RB6_InterruptHandler_HIGH:
   353                           	callstack 0
   354   000019                     	ds	2
   355   00001B                     _RB5_InterruptHandler_HIGH:
   356                           	callstack 0
   357   00001B                     	ds	2
   358   00001D                     _RB4_InterruptHandler_HIGH:
   359                           	callstack 0
   360   00001D                     	ds	2
   361   00001F                     _RB7_InterruptHandler_LOW:
   362                           	callstack 0
   363   00001F                     	ds	2
   364   000021                     _RB6_InterruptHandler_LOW:
   365                           	callstack 0
   366   000021                     	ds	2
   367   000023                     _RB5_InterruptHandler_LOW:
   368                           	callstack 0
   369   000023                     	ds	2
   370   000025                     _RB4_InterruptHandler_LOW:
   371                           	callstack 0
   372   000025                     	ds	2
   373   000027                     _EXTI2_InterruptHandler:
   374                           	callstack 0
   375   000027                     	ds	2
   376   000029                     _EXTI1_InterruptHandler:
   377                           	callstack 0
   378   000029                     	ds	2
   379   00002B                     _EXTI0_InterruptHandler:
   380                           	callstack 0
   381   00002B                     	ds	2
   382   00002D                     _I2C_WRITE_COLLISION_INTERRUPT_HANDLER:
   383                           	callstack 0
   384   00002D                     	ds	2
   385   00002F                     _I2C_OVERFLOW_INTERRUPT_HANDLER:
   386                           	callstack 0
   387   00002F                     	ds	2
   388   000031                     _I2C_DEFAULT_INTERRUPT_HANDLER:
   389                           	callstack 0
   390   000031                     	ds	2
   391   000033                     _CCP2_OVF_INTERRUPT_HANDELER:
   392                           	callstack 0
   393   000033                     	ds	2
   394   000035                     _CCP1_OVF_INTERRUPT_HANDELER:
   395                           	callstack 0
   396   000035                     	ds	2
   397   000037                     _GlobalPreLoad:
   398                           	callstack 0
   399   000037                     	ds	1
   400   000038                     relay_turn_off@F2895:
   401                           	callstack 0
   402   000038                     	ds	1
   403   000039                     relay_turn_on@F2890:
   404                           	callstack 0
   405   000039                     	ds	1
   406   00003A                     relay_initialize@F2885:
   407                           	callstack 0
   408   00003A                     	ds	1
   409   00003B                     led_toggle@F2906:
   410                           	callstack 0
   411   00003B                     	ds	1
   412   00003C                     led_turn_off@F2901:
   413                           	callstack 0
   414   00003C                     	ds	1
   415   00003D                     led_turn_on@F2896:
   416                           	callstack 0
   417   00003D                     	ds	1
   418   00003E                     led_initalize@F2891:
   419                           	callstack 0
   420   00003E                     	ds	1
   421   00003F                     dc_motor_stop@F2913:
   422                           	callstack 0
   423   00003F                     	ds	1
   424   000040                     dc_motor_stop@F2911:
   425                           	callstack 0
   426   000040                     	ds	1
   427   000041                     dc_motor_move_left@F2906:
   428                           	callstack 0
   429   000041                     	ds	1
   430   000042                     dc_motor_move_left@F2904:
   431                           	callstack 0
   432   000042                     	ds	1
   433   000043                     dc_motor_move_right@F2899:
   434                           	callstack 0
   435   000043                     	ds	1
   436   000044                     dc_motor_move_right@F2897:
   437                           	callstack 0
   438   000044                     	ds	1
   439   000045                     dc_motor_initialize@F2892:
   440                           	callstack 0
   441   000045                     	ds	1
   442   000046                     dc_motor_initialize@F2890:
   443                           	callstack 0
   444   000046                     	ds	1
   445   000047                     _receivedData:
   446                           	callstack 0
   447   000047                     	ds	1
   448                           
   449                           	psect	dataCOMRAM
   450   000048                     __pdataCOMRAM:
   451                           	callstack 0
   452   000048                     _lat_registers:
   453                           	callstack 0
   454   000048                     	ds	10
   455   000052                     _tris_registers:
   456                           	callstack 0
   457   000052                     	ds	10
   458   00005C                     _lcd_4bit:
   459                           	callstack 0
   460   00005C                     	ds	6
   461   000062                     _RB7_enter:
   462                           	callstack 0
   463   000062                     	ds	1
   464   000063                     _RB6_enter:
   465                           	callstack 0
   466   000063                     	ds	1
   467   000064                     _RB5_enter:
   468                           	callstack 0
   469   000064                     	ds	1
   470   000065                     _RB4_enter:
   471                           	callstack 0
   472   000065                     	ds	1
   473   000066                     adc_input_channel_port_configure@F2980:
   474                           	callstack 0
   475   000066                     	ds	1
   476   000067                     _spi_obj:
   477                           	callstack 0
   478   000067                     	ds	2
   479   000069                     __pin4:
   480                           	callstack 0
   481   000069                     	ds	1
   482   00006A                     __pin3:
   483                           	callstack 0
   484   00006A                     	ds	1
   485   00006B                     __pin2:
   486                           	callstack 0
   487   00006B                     	ds	1
   488                           
   489                           	psect	dataBANK0
   490   000080                     __pdataBANK0:
   491                           	callstack 0
   492   000080                     _port_registers:
   493                           	callstack 0
   494   000080                     	ds	10
   495   00008A                     _lcd_8bit:
   496                           	callstack 0
   497   00008A                     	ds	10
   498                           
   499                           	psect	cstackBANK0
   500   000094                     __pcstackBANK0:
   501                           	callstack 0
   502   000094                     MSSP_SPI_Init@ret:
   503                           	callstack 0
   504   000094                     MSSP_SPI_Send_Data_specific_ss_Blocking@_spi:
   505                           	callstack 0
   506                           
   507                           ; 1 bytes @ 0x0
   508   000094                     	ds	1
   509   000095                     MSSP_SPI_Send_Data_specific_ss_Blocking@ss_pin:
   510                           	callstack 0
   511                           
   512                           ; 1 bytes @ 0x1
   513   000095                     	ds	1
   514   000096                     MSSP_SPI_Send_Data_specific_ss_Blocking@data:
   515                           	callstack 0
   516                           
   517                           ; 1 bytes @ 0x2
   518   000096                     	ds	1
   519   000097                     MSSP_SPI_Send_Data_specific_ss_Blocking@receivedData:
   520                           	callstack 0
   521                           
   522                           ; 1 bytes @ 0x3
   523   000097                     	ds	1
   524                           
   525                           	psect	cstackCOMRAM
   526   00006C                     __pcstackCOMRAM:
   527                           	callstack 0
   528   00006C                     ??_RB4_ISR:
   529   00006C                     ??_RB5_ISR:
   530   00006C                     ??_RB6_ISR:
   531   00006C                     ??_RB7_ISR:
   532   00006C                     
   533                           ; 2 bytes @ 0x0
   534   00006C                     	ds	2
   535   00006E                     RB4_ISR@RB4_Int:
   536                           	callstack 0
   537   00006E                     RB5_ISR@RB5_Int:
   538                           	callstack 0
   539   00006E                     RB6_ISR@RB6_Int:
   540                           	callstack 0
   541   00006E                     RB7_ISR@RB7_Int:
   542                           	callstack 0
   543                           
   544                           ; 1 bytes @ 0x2
   545   00006E                     	ds	1
   546   00006F                     gpio_pin_direction_initalize@_pin_config:
   547                           	callstack 0
   548   00006F                     gpio_pin_write_logic@_pin_config:
   549                           	callstack 0
   550   00006F                     mssp_spi_clk_polarity_cfg@_spi:
   551                           	callstack 0
   552   00006F                     mssp_spi_clk_phase_cfg@_spi:
   553                           	callstack 0
   554   00006F                     mssp_spi_clk_sample_cfg@_spi:
   555                           	callstack 0
   556                           
   557                           ; 1 bytes @ 0x3
   558   00006F                     	ds	1
   559   000070                     ??_gpio_pin_direction_initalize:
   560   000070                     ??_mssp_spi_clk_polarity_cfg:
   561   000070                     ??_mssp_spi_clk_phase_cfg:
   562   000070                     ??_mssp_spi_clk_sample_cfg:
   563   000070                     gpio_pin_write_logic@logic:
   564                           	callstack 0
   565                           
   566                           ; 1 bytes @ 0x4
   567   000070                     	ds	1
   568   000071                     ??_gpio_pin_write_logic:
   569                           
   570                           ; 1 bytes @ 0x5
   571   000071                     	ds	1
   572   000072                     mssp_spi_mode_cfg@_spi:
   573                           	callstack 0
   574                           
   575                           ; 1 bytes @ 0x6
   576   000072                     	ds	1
   577   000073                     ??_mssp_spi_mode_cfg:
   578                           
   579                           ; 1 bytes @ 0x7
   580   000073                     	ds	2
   581   000075                     gpio_pin_direction_initalize@status:
   582                           	callstack 0
   583                           
   584                           ; 1 bytes @ 0x9
   585   000075                     	ds	1
   586   000076                     gpio_pin_write_logic@status:
   587                           	callstack 0
   588                           
   589                           ; 1 bytes @ 0xA
   590   000076                     	ds	1
   591   000077                     gpio_pin_initalize@_pin_config:
   592                           	callstack 0
   593   000077                     MSSP_SPI_Send_Data_default_ss_Blocking@_spi:
   594                           	callstack 0
   595                           
   596                           ; 1 bytes @ 0xB
   597   000077                     	ds	1
   598   000078                     gpio_pin_initalize@ret:
   599                           	callstack 0
   600   000078                     MSSP_SPI_Send_Data_default_ss_Blocking@data:
   601                           	callstack 0
   602                           
   603                           ; 1 bytes @ 0xC
   604   000078                     	ds	1
   605   000079                     MSSP_SPI_Init@_spi:
   606                           	callstack 0
   607   000079                     MSSP_SPI_Send_Data_default_ss_Blocking@receivedData:
   608                           	callstack 0
   609   000079                     MSSP_SPI_Send_Data_specific_ss_Blocking@ret:
   610                           	callstack 0
   611                           
   612                           ; 1 bytes @ 0xD
   613   000079                     	ds	1
   614   00007A                     ??_MSSP_SPI_Init:
   615   00007A                     MSSP_SPI_Send_Data_default_ss_Blocking@ret:
   616                           	callstack 0
   617                           
   618                           ; 1 bytes @ 0xE
   619   00007A                     	ds	1
   620   00007B                     
   621                           ; 1 bytes @ 0xF
   622 ;;
   623 ;;Main: autosize = 0, tempsize = 0, incstack = 0, save=0
   624 ;;
   625 ;; *************** function _main *****************
   626 ;; Defined at:
   627 ;;		line 55 in file "../application.c"
   628 ;; Parameters:    Size  Location     Type
   629 ;;		None
   630 ;; Auto vars:     Size  Location     Type
   631 ;;		None
   632 ;; Return value:  Size  Location     Type
   633 ;;                  2  1593[None  ] int 
   634 ;; Registers used:
   635 ;;		wreg, fsr2l, fsr2h, status,2, status,0, prodl, prodh, cstack
   636 ;; Tracked objects:
   637 ;;		On entry : 0/0
   638 ;;		On exit  : 0/0
   639 ;;		Unchanged: 0/0
   640 ;; Data sizes:     COMRAM   BANK0   BANK1   BANK2   BANK3   BANK4   BANK5   BANK6   BANK7   BANK8   BANK9  BANK10  BANK1
      +1  BANK12  BANK13  BANK14  BANK15
   641 ;;      Params:         0       0       0       0       0       0       0       0       0       0       0       0       
      +0       0       0       0       0
   642 ;;      Locals:         0       0       0       0       0       0       0       0       0       0       0       0       
      +0       0       0       0       0
   643 ;;      Temps:          0       0       0       0       0       0       0       0       0       0       0       0       
      +0       0       0       0       0
   644 ;;      Totals:         0       0       0       0       0       0       0       0       0       0       0       0       
      +0       0       0       0       0
   645 ;;Total ram usage:        0 bytes
   646 ;; Hardware stack levels required when called: 5
   647 ;; This function calls:
   648 ;;		_MSSP_SPI_Init
   649 ;;		_MSSP_SPI_Send_Data_default_ss_Blocking
   650 ;;		_MSSP_SPI_Send_Data_specific_ss_Blocking
   651 ;; This function is called by:
   652 ;;		Startup code after reset
   653 ;; This function uses a non-reentrant model
   654 ;;
   655                           
   656                           	psect	text0
   657   0016B6                     __ptext0:
   658                           	callstack 0
   659   0016B6                     _main:
   660                           	callstack 26
   661   0016B6                     
   662                           ;../application.c: 57:   ret = MSSP_SPI_Init(&spi_obj);
   663   0016B6  0E67               	movlw	low _spi_obj
   664   0016B8  6E79               	movwf	MSSP_SPI_Init@_spi^0,c
   665   0016BA  ECF4  F00B         	call	_MSSP_SPI_Init	;wreg free
   666   0016BE  6E7B               	movwf	_ret^0,c
   667   0016C0                     l1594:
   668                           
   669                           ;../application.c: 59:   {;../application.c: 60:     ret = MSSP_SPI_Send_Data_default_ss
      +                          _Blocking(&spi_obj, 'a', &receivedData);
   670   0016C0  0E67               	movlw	low _spi_obj
   671   0016C2  6E77               	movwf	MSSP_SPI_Send_Data_default_ss_Blocking@_spi^0,c
   672   0016C4  0E61               	movlw	97
   673   0016C6  6E78               	movwf	MSSP_SPI_Send_Data_default_ss_Blocking@data^0,c
   674   0016C8  0E47               	movlw	low _receivedData
   675   0016CA  6E79               	movwf	MSSP_SPI_Send_Data_default_ss_Blocking@receivedData^0,c
   676   0016CC  EC4E  F00C         	call	_MSSP_SPI_Send_Data_default_ss_Blocking	;wreg free
   677   0016D0  6E7B               	movwf	_ret^0,c
   678                           
   679                           ;../application.c: 61:     ret = MSSP_SPI_Send_Data_specific_ss_Blocking(&spi_obj, &_pin
      +                          2, 'a', &receivedData);
   680   0016D2  0E67               	movlw	low _spi_obj
   681   0016D4  0100               	movlb	0	; () banked
   682   0016D6  6F94               	movwf	MSSP_SPI_Send_Data_specific_ss_Blocking@_spi& (0+255),b
   683   0016D8  0E6B               	movlw	low __pin2
   684   0016DA  6F95               	movwf	MSSP_SPI_Send_Data_specific_ss_Blocking@ss_pin& (0+255),b
   685   0016DC  0E61               	movlw	97
   686   0016DE  6F96               	movwf	MSSP_SPI_Send_Data_specific_ss_Blocking@data& (0+255),b
   687   0016E0  0E47               	movlw	low _receivedData
   688   0016E2  6F97               	movwf	MSSP_SPI_Send_Data_specific_ss_Blocking@receivedData& (0+255),b
   689   0016E4  ECC3  F00B         	call	_MSSP_SPI_Send_Data_specific_ss_Blocking	;wreg free
   690   0016E8  6E7B               	movwf	_ret^0,c
   691                           
   692                           ;../application.c: 62:     ret = MSSP_SPI_Send_Data_specific_ss_Blocking(&spi_obj, &_pin
      +                          3, 'a', &receivedData);
   693   0016EA  0E67               	movlw	low _spi_obj
   694   0016EC  0100               	movlb	0	; () banked
   695   0016EE  6F94               	movwf	MSSP_SPI_Send_Data_specific_ss_Blocking@_spi& (0+255),b
   696   0016F0  0E6A               	movlw	low __pin3
   697   0016F2  6F95               	movwf	MSSP_SPI_Send_Data_specific_ss_Blocking@ss_pin& (0+255),b
   698   0016F4  0E61               	movlw	97
   699   0016F6  6F96               	movwf	MSSP_SPI_Send_Data_specific_ss_Blocking@data& (0+255),b
   700   0016F8  0E47               	movlw	low _receivedData
   701   0016FA  6F97               	movwf	MSSP_SPI_Send_Data_specific_ss_Blocking@receivedData& (0+255),b
   702   0016FC  ECC3  F00B         	call	_MSSP_SPI_Send_Data_specific_ss_Blocking	;wreg free
   703   001700  6E7B               	movwf	_ret^0,c
   704                           
   705                           ;../application.c: 63:     ret = MSSP_SPI_Send_Data_specific_ss_Blocking(&spi_obj, &_pin
      +                          4, 'a', &receivedData);
   706   001702  0E67               	movlw	low _spi_obj
   707   001704  0100               	movlb	0	; () banked
   708   001706  6F94               	movwf	MSSP_SPI_Send_Data_specific_ss_Blocking@_spi& (0+255),b
   709   001708  0E69               	movlw	low __pin4
   710   00170A  6F95               	movwf	MSSP_SPI_Send_Data_specific_ss_Blocking@ss_pin& (0+255),b
   711   00170C  0E61               	movlw	97
   712   00170E  6F96               	movwf	MSSP_SPI_Send_Data_specific_ss_Blocking@data& (0+255),b
   713   001710  0E47               	movlw	low _receivedData
   714   001712  6F97               	movwf	MSSP_SPI_Send_Data_specific_ss_Blocking@receivedData& (0+255),b
   715   001714  ECC3  F00B         	call	_MSSP_SPI_Send_Data_specific_ss_Blocking	;wreg free
   716   001718  6E7B               	movwf	_ret^0,c
   717   00171A  EF60  F00B         	goto	l1594
   718   00171E  EF07  F000         	goto	start
   719   001722                     __end_of_main:
   720                           	callstack 0
   721                           
   722 ;; *************** function _MSSP_SPI_Send_Data_specific_ss_Blocking *****************
   723 ;; Defined at:
   724 ;;		line 96 in file "../MCAL_layer/SPI/hal_spi.c"
   725 ;; Parameters:    Size  Location     Type
   726 ;;  _spi            1    0[BANK0 ] PTR const struct .
   727 ;;		 -> spi_obj(2), 
   728 ;;  ss_pin          1    1[BANK0 ] PTR const struct .
   729 ;;		 -> _pin4(1), _pin3(1), _pin2(1), 
   730 ;;  data            1    2[BANK0 ] unsigned char 
   731 ;;  receivedData    1    3[BANK0 ] PTR unsigned char 
   732 ;;		 -> receivedData(1), 
   733 ;; Auto vars:     Size  Location     Type
   734 ;;  ret             1   13[COMRAM] unsigned char 
   735 ;; Return value:  Size  Location     Type
   736 ;;                  1    wreg      unsigned char 
   737 ;; Registers used:
   738 ;;		wreg, fsr2l, fsr2h, status,2, status,0, prodl, prodh, cstack
   739 ;; Tracked objects:
   740 ;;		On entry : 0/0
   741 ;;		On exit  : 0/0
   742 ;;		Unchanged: 0/0
   743 ;; Data sizes:     COMRAM   BANK0   BANK1   BANK2   BANK3   BANK4   BANK5   BANK6   BANK7   BANK8   BANK9  BANK10  BANK1
      +1  BANK12  BANK13  BANK14  BANK15
   744 ;;      Params:         0       4       0       0       0       0       0       0       0       0       0       0       
      +0       0       0       0       0
   745 ;;      Locals:         1       0       0       0       0       0       0       0       0       0       0       0       
      +0       0       0       0       0
   746 ;;      Temps:          0       0       0       0       0       0       0       0       0       0       0       0       
      +0       0       0       0       0
   747 ;;      Totals:         1       4       0       0       0       0       0       0       0       0       0       0       
      +0       0       0       0       0
   748 ;;Total ram usage:        5 bytes
   749 ;; Hardware stack levels used: 1
   750 ;; Hardware stack levels required when called: 4
   751 ;; This function calls:
   752 ;;		_gpio_pin_initalize
   753 ;;		_gpio_pin_write_logic
   754 ;; This function is called by:
   755 ;;		_main
   756 ;; This function uses a non-reentrant model
   757 ;;
   758                           
   759                           	psect	text1
   760   001786                     __ptext1:
   761                           	callstack 0
   762   001786                     _MSSP_SPI_Send_Data_specific_ss_Blocking:
   763                           	callstack 26
   764   001786                     
   765                           ;../MCAL_layer/SPI/hal_spi.c: 99:     if (((void*)0) == _spi)
   766   001786  0100               	movlb	0	; () banked
   767   001788  5194               	movf	MSSP_SPI_Send_Data_specific_ss_Blocking@_spi& (0+255),w,b
   768   00178A  A4D8               	btfss	status,2,c
   769   00178C  EFCA  F00B         	goto	u4921
   770   001790  EFCC  F00B         	goto	u4920
   771   001794                     u4921:
   772   001794  EFD0  F00B         	goto	l6545
   773   001798                     u4920:
   774   001798                     
   775                           ; BSR set to: 0
   776                           ;../MCAL_layer/SPI/hal_spi.c: 100:     {;../MCAL_layer/SPI/hal_spi.c: 101:         ret =
      +                           (Std_ReturnType)0x00;
   777   001798  0E00               	movlw	0
   778   00179A  6E79               	movwf	MSSP_SPI_Send_Data_specific_ss_Blocking@ret^0,c
   779                           
   780                           ;../MCAL_layer/SPI/hal_spi.c: 102:     }
   781   00179C  EFF2  F00B         	goto	l6553
   782   0017A0                     l6545:
   783                           
   784                           ; BSR set to: 0
   785                           ;../MCAL_layer/SPI/hal_spi.c: 104:     {;../MCAL_layer/SPI/hal_spi.c: 106:         ret =
      +                           gpio_pin_initalize(ss_pin);
   786   0017A0  C095  F077         	movff	MSSP_SPI_Send_Data_specific_ss_Blocking@ss_pin,gpio_pin_initalize@_pin_config
   787   0017A4  ECF2  F00C         	call	_gpio_pin_initalize	;wreg free
   788   0017A8  6E79               	movwf	MSSP_SPI_Send_Data_specific_ss_Blocking@ret^0,c
   789                           
   790                           ;../MCAL_layer/SPI/hal_spi.c: 107:         ret = gpio_pin_write_logic(ss_pin, LOW);
   791   0017AA  C095  F06F         	movff	MSSP_SPI_Send_Data_specific_ss_Blocking@ss_pin,gpio_pin_write_logic@_pin_config
   792   0017AE  0E00               	movlw	0
   793   0017B0  6E70               	movwf	gpio_pin_write_logic@logic^0,c
   794   0017B2  ECC5  F00A         	call	_gpio_pin_write_logic	;wreg free
   795   0017B6  6E79               	movwf	MSSP_SPI_Send_Data_specific_ss_Blocking@ret^0,c
   796   0017B8                     
   797                           ;../MCAL_layer/SPI/hal_spi.c: 110:         SSPBUF = data;
   798   0017B8  C096  FFC9         	movff	MSSP_SPI_Send_Data_specific_ss_Blocking@data,4041	;volatile
   799   0017BC                     l1640:
   800                           
   801                           ;../MCAL_layer/SPI/hal_spi.c: 113:         while (0x01 != (SSPSTATbits.BF))
   802   0017BC  A0C7               	btfss	199,0,c	;volatile
   803   0017BE  EFE3  F00B         	goto	u4931
   804   0017C2  EFE5  F00B         	goto	u4930
   805   0017C6                     u4931:
   806   0017C6  EFDE  F00B         	goto	l1640
   807   0017CA                     u4930:
   808   0017CA                     
   809                           ;../MCAL_layer/SPI/hal_spi.c: 117:         ret = gpio_pin_write_logic(ss_pin, HIGH);
   810   0017CA  C095  F06F         	movff	MSSP_SPI_Send_Data_specific_ss_Blocking@ss_pin,gpio_pin_write_logic@_pin_config
   811   0017CE  0E01               	movlw	1
   812   0017D0  6E70               	movwf	gpio_pin_write_logic@logic^0,c
   813   0017D2  ECC5  F00A         	call	_gpio_pin_write_logic	;wreg free
   814   0017D6  6E79               	movwf	MSSP_SPI_Send_Data_specific_ss_Blocking@ret^0,c
   815   0017D8                     
   816                           ;../MCAL_layer/SPI/hal_spi.c: 120:         *receivedData = SSPBUF;
   817   0017D8  0100               	movlb	0	; () banked
   818   0017DA  5197               	movf	MSSP_SPI_Send_Data_specific_ss_Blocking@receivedData& (0+255),w,b
   819   0017DC  6ED9               	movwf	fsr2l,c
   820   0017DE  6ADA               	clrf	fsr2h,c
   821   0017E0  CFC9 FFDF          	movff	4041,indf2	;volatile
   822   0017E4                     l6553:
   823                           
   824                           ; BSR set to: 0
   825                           ;../MCAL_layer/SPI/hal_spi.c: 122:     return ret;
   826   0017E4  5079               	movf	MSSP_SPI_Send_Data_specific_ss_Blocking@ret^0,w,c
   827   0017E6                     
   828                           ; BSR set to: 0
   829   0017E6  0012               	return		;funcret
   830   0017E8                     __end_of_MSSP_SPI_Send_Data_specific_ss_Blocking:
   831                           	callstack 0
   832                           
   833 ;; *************** function _MSSP_SPI_Send_Data_default_ss_Blocking *****************
   834 ;; Defined at:
   835 ;;		line 68 in file "../MCAL_layer/SPI/hal_spi.c"
   836 ;; Parameters:    Size  Location     Type
   837 ;;  _spi            1   11[COMRAM] PTR const struct .
   838 ;;		 -> spi_obj(2), 
   839 ;;  data            1   12[COMRAM] unsigned char 
   840 ;;  receivedData    1   13[COMRAM] PTR unsigned char 
   841 ;;		 -> receivedData(1), 
   842 ;; Auto vars:     Size  Location     Type
   843 ;;  ret             1   14[COMRAM] unsigned char 
   844 ;; Return value:  Size  Location     Type
   845 ;;                  1    wreg      unsigned char 
   846 ;; Registers used:
   847 ;;		wreg, fsr2l, fsr2h, status,2, status,0, prodl, prodh, cstack
   848 ;; Tracked objects:
   849 ;;		On entry : 0/0
   850 ;;		On exit  : 0/0
   851 ;;		Unchanged: 0/0
   852 ;; Data sizes:     COMRAM   BANK0   BANK1   BANK2   BANK3   BANK4   BANK5   BANK6   BANK7   BANK8   BANK9  BANK10  BANK1
      +1  BANK12  BANK13  BANK14  BANK15
   853 ;;      Params:         3       0       0       0       0       0       0       0       0       0       0       0       
      +0       0       0       0       0
   854 ;;      Locals:         1       0       0       0       0       0       0       0       0       0       0       0       
      +0       0       0       0       0
   855 ;;      Temps:          0       0       0       0       0       0       0       0       0       0       0       0       
      +0       0       0       0       0
   856 ;;      Totals:         4       0       0       0       0       0       0       0       0       0       0       0       
      +0       0       0       0       0
   857 ;;Total ram usage:        4 bytes
   858 ;; Hardware stack levels used: 1
   859 ;; Hardware stack levels required when called: 3
   860 ;; This function calls:
   861 ;;		_gpio_pin_write_logic
   862 ;; This function is called by:
   863 ;;		_main
   864 ;; This function uses a non-reentrant model
   865 ;;
   866                           
   867                           	psect	text2
   868   00189C                     __ptext2:
   869                           	callstack 0
   870   00189C                     _MSSP_SPI_Send_Data_default_ss_Blocking:
   871                           	callstack 27
   872   00189C                     
   873                           ;../MCAL_layer/SPI/hal_spi.c: 71:     if (((void*)0) == _spi)
   874   00189C  5077               	movf	MSSP_SPI_Send_Data_default_ss_Blocking@_spi^0,w,c
   875   00189E  A4D8               	btfss	status,2,c
   876   0018A0  EF54  F00C         	goto	u4901
   877   0018A4  EF56  F00C         	goto	u4900
   878   0018A8                     u4901:
   879   0018A8  EF5A  F00C         	goto	l6529
   880   0018AC                     u4900:
   881   0018AC                     
   882                           ;../MCAL_layer/SPI/hal_spi.c: 72:     {;../MCAL_layer/SPI/hal_spi.c: 73:         ret = (
      +                          Std_ReturnType)0x00;
   883   0018AC  0E00               	movlw	0
   884   0018AE  6E7A               	movwf	MSSP_SPI_Send_Data_default_ss_Blocking@ret^0,c
   885                           
   886                           ;../MCAL_layer/SPI/hal_spi.c: 74:     }
   887   0018B0  EF75  F00C         	goto	l6537
   888   0018B4                     l6529:
   889   0018B4  2877               	incf	MSSP_SPI_Send_Data_default_ss_Blocking@_spi^0,w,c
   890   0018B6  6E6F               	movwf	gpio_pin_write_logic@_pin_config^0,c
   891   0018B8  0E00               	movlw	0
   892   0018BA  6E70               	movwf	gpio_pin_write_logic@logic^0,c
   893   0018BC  ECC5  F00A         	call	_gpio_pin_write_logic	;wreg free
   894   0018C0                     
   895                           ;../MCAL_layer/SPI/hal_spi.c: 81:         SSPBUF = data;
   896   0018C0  C078  FFC9         	movff	MSSP_SPI_Send_Data_default_ss_Blocking@data,4041	;volatile
   897   0018C4                     l1632:
   898                           
   899                           ;../MCAL_layer/SPI/hal_spi.c: 84:         while (0x01 != (SSPSTATbits.BF))
   900   0018C4  A0C7               	btfss	199,0,c	;volatile
   901   0018C6  EF67  F00C         	goto	u4911
   902   0018CA  EF69  F00C         	goto	u4910
   903   0018CE                     u4911:
   904   0018CE  EF62  F00C         	goto	l1632
   905   0018D2                     u4910:
   906   0018D2                     
   907                           ;../MCAL_layer/SPI/hal_spi.c: 88:         ret = gpio_pin_write_logic(&(_spi->ss_pin), HI
      +                          GH);
   908   0018D2  2877               	incf	MSSP_SPI_Send_Data_default_ss_Blocking@_spi^0,w,c
   909   0018D4  6E6F               	movwf	gpio_pin_write_logic@_pin_config^0,c
   910   0018D6  0E01               	movlw	1
   911   0018D8  6E70               	movwf	gpio_pin_write_logic@logic^0,c
   912   0018DA  ECC5  F00A         	call	_gpio_pin_write_logic	;wreg free
   913   0018DE  6E7A               	movwf	MSSP_SPI_Send_Data_default_ss_Blocking@ret^0,c
   914   0018E0                     
   915                           ;../MCAL_layer/SPI/hal_spi.c: 91:         *receivedData = SSPBUF;
   916   0018E0  5079               	movf	MSSP_SPI_Send_Data_default_ss_Blocking@receivedData^0,w,c
   917   0018E2  6ED9               	movwf	fsr2l,c
   918   0018E4  6ADA               	clrf	fsr2h,c
   919   0018E6  CFC9 FFDF          	movff	4041,indf2	;volatile
   920   0018EA                     l6537:
   921                           
   922                           ;../MCAL_layer/SPI/hal_spi.c: 93:     return ret;
   923   0018EA  507A               	movf	MSSP_SPI_Send_Data_default_ss_Blocking@ret^0,w,c
   924   0018EC  0012               	return		;funcret
   925   0018EE                     __end_of_MSSP_SPI_Send_Data_default_ss_Blocking:
   926                           	callstack 0
   927                           
   928 ;; *************** function _MSSP_SPI_Init *****************
   929 ;; Defined at:
   930 ;;		line 21 in file "../MCAL_layer/SPI/hal_spi.c"
   931 ;; Parameters:    Size  Location     Type
   932 ;;  _spi            1   13[COMRAM] PTR const struct .
   933 ;;		 -> spi_obj(2), 
   934 ;; Auto vars:     Size  Location     Type
   935 ;;  ret             1    0[BANK0 ] unsigned char 
   936 ;; Return value:  Size  Location     Type
   937 ;;                  1    wreg      unsigned char 
   938 ;; Registers used:
   939 ;;		wreg, fsr2l, fsr2h, status,2, status,0, prodl, prodh, cstack
   940 ;; Tracked objects:
   941 ;;		On entry : 0/0
   942 ;;		On exit  : 0/0
   943 ;;		Unchanged: 0/0
   944 ;; Data sizes:     COMRAM   BANK0   BANK1   BANK2   BANK3   BANK4   BANK5   BANK6   BANK7   BANK8   BANK9  BANK10  BANK1
      +1  BANK12  BANK13  BANK14  BANK15
   945 ;;      Params:         1       0       0       0       0       0       0       0       0       0       0       0       
      +0       0       0       0       0
   946 ;;      Locals:         0       1       0       0       0       0       0       0       0       0       0       0       
      +0       0       0       0       0
   947 ;;      Temps:          1       0       0       0       0       0       0       0       0       0       0       0       
      +0       0       0       0       0
   948 ;;      Totals:         2       1       0       0       0       0       0       0       0       0       0       0       
      +0       0       0       0       0
   949 ;;Total ram usage:        3 bytes
   950 ;; Hardware stack levels used: 1
   951 ;; Hardware stack levels required when called: 4
   952 ;; This function calls:
   953 ;;		_gpio_pin_initalize
   954 ;;		_mssp_spi_clk_phase_cfg
   955 ;;		_mssp_spi_clk_polarity_cfg
   956 ;;		_mssp_spi_mode_cfg
   957 ;; This function is called by:
   958 ;;		_main
   959 ;; This function uses a non-reentrant model
   960 ;;
   961                           
   962                           	psect	text3
   963   0017E8                     __ptext3:
   964                           	callstack 0
   965   0017E8                     _MSSP_SPI_Init:
   966                           	callstack 26
   967   0017E8                     
   968                           ;../MCAL_layer/SPI/hal_spi.c: 24:     if (((void*)0) == _spi)
   969   0017E8  5079               	movf	MSSP_SPI_Init@_spi^0,w,c
   970   0017EA  A4D8               	btfss	status,2,c
   971   0017EC  EFFA  F00B         	goto	u4891
   972   0017F0  EFFC  F00B         	goto	u4890
   973   0017F4                     u4891:
   974   0017F4  EF01  F00C         	goto	l1620
   975   0017F8                     u4890:
   976   0017F8                     
   977                           ;../MCAL_layer/SPI/hal_spi.c: 25:     {;../MCAL_layer/SPI/hal_spi.c: 26:         ret = (
      +                          Std_ReturnType)0x00;
   978   0017F8  0E00               	movlw	0
   979   0017FA  0100               	movlb	0	; () banked
   980   0017FC  6F94               	movwf	MSSP_SPI_Init@ret& (0+255),b
   981                           
   982                           ;../MCAL_layer/SPI/hal_spi.c: 27:     }
   983   0017FE  EF20  F00C         	goto	l6521
   984   001802                     l1620:
   985                           
   986                           ;../MCAL_layer/SPI/hal_spi.c: 29:     {;../MCAL_layer/SPI/hal_spi.c: 31:         (SSPCON
      +                          1bits.SSPEN = 0);
   987   001802  9AC6               	bcf	198,5,c	;volatile
   988   001804                     
   989                           ;../MCAL_layer/SPI/hal_spi.c: 34:         ret = gpio_pin_initalize(&_spi->ss_pin);
   990   001804  2879               	incf	MSSP_SPI_Init@_spi^0,w,c
   991   001806  6E77               	movwf	gpio_pin_initalize@_pin_config^0,c
   992   001808  ECF2  F00C         	call	_gpio_pin_initalize	;wreg free
   993   00180C  0100               	movlb	0	; () banked
   994   00180E  6F94               	movwf	MSSP_SPI_Init@ret& (0+255),b
   995   001810                     
   996                           ; BSR set to: 0
   997                           ;../MCAL_layer/SPI/hal_spi.c: 37:         mssp_spi_mode_cfg(_spi);
   998   001810  C079  F072         	movff	MSSP_SPI_Init@_spi,mssp_spi_mode_cfg@_spi
   999   001814  EC91  F00B         	call	_mssp_spi_mode_cfg	;wreg free
  1000   001818                     
  1001                           ;../MCAL_layer/SPI/hal_spi.c: 40:         (SSPCON1bits.SSPM = _spi->spi_mode_cfg);
  1002   001818  5079               	movf	MSSP_SPI_Init@_spi^0,w,c
  1003   00181A  6ED9               	movwf	fsr2l,c
  1004   00181C  6ADA               	clrf	fsr2h,c
  1005   00181E  30DF               	rrcf	223,w,c
  1006   001820  0B0F               	andlw	15
  1007   001822  6E7A               	movwf	??_MSSP_SPI_Init^0,c
  1008   001824  50C6               	movf	198,w,c	;volatile
  1009   001826  187A               	xorwf	??_MSSP_SPI_Init^0,w,c
  1010   001828  0BF0               	andlw	-16
  1011   00182A  187A               	xorwf	??_MSSP_SPI_Init^0,w,c
  1012   00182C  6EC6               	movwf	198,c	;volatile
  1013   00182E                     
  1014                           ;../MCAL_layer/SPI/hal_spi.c: 43:         mssp_spi_clk_polarity_cfg(_spi);
  1015   00182E  C079  F06F         	movff	MSSP_SPI_Init@_spi,mssp_spi_clk_polarity_cfg@_spi
  1016   001832  ECA0  F00C         	call	_mssp_spi_clk_polarity_cfg	;wreg free
  1017   001836                     
  1018                           ;../MCAL_layer/SPI/hal_spi.c: 46:         mssp_spi_clk_phase_cfg(_spi);
  1019   001836  C079  F06F         	movff	MSSP_SPI_Init@_spi,mssp_spi_clk_phase_cfg@_spi
  1020   00183A  ECC9  F00C         	call	_mssp_spi_clk_phase_cfg	;wreg free
  1021   00183E                     
  1022                           ;../MCAL_layer/SPI/hal_spi.c: 49:         (SSPCON1bits.SSPEN = 1);
  1023   00183E  8AC6               	bsf	198,5,c	;volatile
  1024   001840                     l6521:
  1025                           
  1026                           ;../MCAL_layer/SPI/hal_spi.c: 51:     return ret;
  1027   001840  0100               	movlb	0	; () banked
  1028   001842  5194               	movf	MSSP_SPI_Init@ret& (0+255),w,b
  1029   001844                     
  1030                           ; BSR set to: 0
  1031   001844  0012               	return		;funcret
  1032   001846                     __end_of_MSSP_SPI_Init:
  1033                           	callstack 0
  1034                           
  1035 ;; *************** function _mssp_spi_mode_cfg *****************
  1036 ;; Defined at:
  1037 ;;		line 179 in file "../MCAL_layer/SPI/hal_spi.c"
  1038 ;; Parameters:    Size  Location     Type
  1039 ;;  _spi            1    6[COMRAM] PTR const struct .
  1040 ;;		 -> spi_obj(2), 
  1041 ;; Auto vars:     Size  Location     Type
  1042 ;;		None
  1043 ;; Return value:  Size  Location     Type
  1044 ;;                  1    wreg      void 
  1045 ;; Registers used:
  1046 ;;		wreg, fsr2l, fsr2h, status,2, status,0, cstack
  1047 ;; Tracked objects:
  1048 ;;		On entry : 0/0
  1049 ;;		On exit  : 0/0
  1050 ;;		Unchanged: 0/0
  1051 ;; Data sizes:     COMRAM   BANK0   BANK1   BANK2   BANK3   BANK4   BANK5   BANK6   BANK7   BANK8   BANK9  BANK10  BANK1
      +1  BANK12  BANK13  BANK14  BANK15
  1052 ;;      Params:         1       0       0       0       0       0       0       0       0       0       0       0       
      +0       0       0       0       0
  1053 ;;      Locals:         0       0       0       0       0       0       0       0       0       0       0       0       
      +0       0       0       0       0
  1054 ;;      Temps:          2       0       0       0       0       0       0       0       0       0       0       0       
      +0       0       0       0       0
  1055 ;;      Totals:         3       0       0       0       0       0       0       0       0       0       0       0       
      +0       0       0       0       0
  1056 ;;Total ram usage:        3 bytes
  1057 ;; Hardware stack levels used: 1
  1058 ;; Hardware stack levels required when called: 3
  1059 ;; This function calls:
  1060 ;;		_mssp_spi_clk_sample_cfg
  1061 ;; This function is called by:
  1062 ;;		_MSSP_SPI_Init
  1063 ;; This function uses a non-reentrant model
  1064 ;;
  1065                           
  1066                           	psect	text4
  1067   001722                     __ptext4:
  1068                           	callstack 0
  1069   001722                     _mssp_spi_mode_cfg:
  1070                           	callstack 26
  1071   001722                     
  1072                           ;../MCAL_layer/SPI/hal_spi.c: 179: static __attribute__((inline)) void mssp_spi_mode_cfg
      +                          (const spi_t *_spi);../MCAL_layer/SPI/hal_spi.c: 180: {;../MCAL_layer/SPI/hal_spi.c: 181
      +                          :     switch (_spi->spi_mode)
  1073   001722  EFA2  F00B         	goto	l6349
  1074   001726                     l6339:
  1075                           
  1076                           ;../MCAL_layer/SPI/hal_spi.c: 185:         mssp_spi_clk_sample_cfg(_spi);
  1077   001726  C072  F06F         	movff	mssp_spi_mode_cfg@_spi,mssp_spi_clk_sample_cfg@_spi
  1078   00172A  EC77  F00C         	call	_mssp_spi_clk_sample_cfg	;wreg free
  1079   00172E                     
  1080                           ;../MCAL_layer/SPI/hal_spi.c: 188:         TRISCbits.RC5 = OUTPUT;
  1081   00172E  9A94               	bcf	148,5,c	;volatile
  1082   001730                     
  1083                           ;../MCAL_layer/SPI/hal_spi.c: 189:         TRISCbits.RC3 = OUTPUT;
  1084   001730  9694               	bcf	148,3,c	;volatile
  1085   001732                     
  1086                           ;../MCAL_layer/SPI/hal_spi.c: 190:         TRISAbits.RA5 = INPUT;
  1087   001732  8A92               	bsf	146,5,c	;volatile
  1088                           
  1089                           ;../MCAL_layer/SPI/hal_spi.c: 191:         break;
  1090   001734  EFC2  F00B         	goto	l1675
  1091   001738                     l1673:
  1092                           
  1093                           ;../MCAL_layer/SPI/hal_spi.c: 195:         (SSPSTATbits.SMP = 0);
  1094   001738  9EC7               	bcf	199,7,c	;volatile
  1095                           
  1096                           ;../MCAL_layer/SPI/hal_spi.c: 198:         TRISCbits.RC5 = OUTPUT;
  1097   00173A  9A94               	bcf	148,5,c	;volatile
  1098                           
  1099                           ;../MCAL_layer/SPI/hal_spi.c: 199:         TRISCbits.RC3 = INPUT;
  1100   00173C  8694               	bsf	148,3,c	;volatile
  1101                           
  1102                           ;../MCAL_layer/SPI/hal_spi.c: 200:         TRISAbits.RA5 = INPUT;
  1103   00173E  8A92               	bsf	146,5,c	;volatile
  1104                           
  1105                           ;../MCAL_layer/SPI/hal_spi.c: 201:         break;
  1106   001740  EFC2  F00B         	goto	l1675
  1107   001744                     l6349:
  1108   001744  5072               	movf	mssp_spi_mode_cfg@_spi^0,w,c
  1109   001746  6ED9               	movwf	fsr2l,c
  1110   001748  6ADA               	clrf	fsr2h,c
  1111   00174A  B0DF               	btfsc	indf2,0,c
  1112   00174C  EFAA  F00B         	goto	u4701
  1113   001750  EFAD  F00B         	goto	u4700
  1114   001754                     u4701:
  1115   001754  0E01               	movlw	1
  1116   001756  EFAE  F00B         	goto	u4710
  1117   00175A                     u4700:
  1118   00175A  0E00               	movlw	0
  1119   00175C                     u4710:
  1120   00175C  6E73               	movwf	??_mssp_spi_mode_cfg^0,c
  1121   00175E  6A74               	clrf	(??_mssp_spi_mode_cfg+1)^0,c
  1122                           
  1123                           ; Switch on 2 bytes has been partitioned into a top level switch of size 1, and 1 sub-sw
      +                          itches
  1124                           ; Switch size 1, requested type "simple"
  1125                           ; Number of cases is 1, Range of values is 0 to 0
  1126                           ; switch strategies available:
  1127                           ; Name         Instructions Cycles
  1128                           ; simple_byte            4     3 (average)
  1129                           ;	Chosen strategy is simple_byte
  1130   001760  5074               	movf	(??_mssp_spi_mode_cfg+1)^0,w,c
  1131   001762  0A00               	xorlw	0	; case 0
  1132   001764  B4D8               	btfsc	status,2,c
  1133   001766  EFB7  F00B         	goto	l7427
  1134   00176A  EFC2  F00B         	goto	l1675
  1135   00176E                     l7427:
  1136                           
  1137                           ; Switch size 1, requested type "simple"
  1138                           ; Number of cases is 2, Range of values is 0 to 1
  1139                           ; switch strategies available:
  1140                           ; Name         Instructions Cycles
  1141                           ; simple_byte            7     4 (average)
  1142                           ;	Chosen strategy is simple_byte
  1143   00176E  5073               	movf	??_mssp_spi_mode_cfg^0,w,c
  1144   001770  0A00               	xorlw	0	; case 0
  1145   001772  B4D8               	btfsc	status,2,c
  1146   001774  EF9C  F00B         	goto	l1673
  1147   001778  0A01               	xorlw	1	; case 1
  1148   00177A  B4D8               	btfsc	status,2,c
  1149   00177C  EF93  F00B         	goto	l6339
  1150   001780  EFC2  F00B         	goto	l1675
  1151   001784                     l1675:
  1152   001784  0012               	return		;funcret
  1153   001786                     __end_of_mssp_spi_mode_cfg:
  1154                           	callstack 0
  1155                           
  1156 ;; *************** function _mssp_spi_clk_sample_cfg *****************
  1157 ;; Defined at:
  1158 ;;		line 161 in file "../MCAL_layer/SPI/hal_spi.c"
  1159 ;; Parameters:    Size  Location     Type
  1160 ;;  _spi            1    3[COMRAM] PTR const struct .
  1161 ;;		 -> spi_obj(2), 
  1162 ;; Auto vars:     Size  Location     Type
  1163 ;;		None
  1164 ;; Return value:  Size  Location     Type
  1165 ;;                  1    wreg      void 
  1166 ;; Registers used:
  1167 ;;		wreg, fsr2l, fsr2h, status,2, status,0
  1168 ;; Tracked objects:
  1169 ;;		On entry : 0/0
  1170 ;;		On exit  : 0/0
  1171 ;;		Unchanged: 0/0
  1172 ;; Data sizes:     COMRAM   BANK0   BANK1   BANK2   BANK3   BANK4   BANK5   BANK6   BANK7   BANK8   BANK9  BANK10  BANK1
      +1  BANK12  BANK13  BANK14  BANK15
  1173 ;;      Params:         1       0       0       0       0       0       0       0       0       0       0       0       
      +0       0       0       0       0
  1174 ;;      Locals:         0       0       0       0       0       0       0       0       0       0       0       0       
      +0       0       0       0       0
  1175 ;;      Temps:          2       0       0       0       0       0       0       0       0       0       0       0       
      +0       0       0       0       0
  1176 ;;      Totals:         3       0       0       0       0       0       0       0       0       0       0       0       
      +0       0       0       0       0
  1177 ;;Total ram usage:        3 bytes
  1178 ;; Hardware stack levels used: 1
  1179 ;; Hardware stack levels required when called: 2
  1180 ;; This function calls:
  1181 ;;		Nothing
  1182 ;; This function is called by:
  1183 ;;		_mssp_spi_mode_cfg
  1184 ;; This function uses a non-reentrant model
  1185 ;;
  1186                           
  1187                           	psect	text5
  1188   0018EE                     __ptext5:
  1189                           	callstack 0
  1190   0018EE                     _mssp_spi_clk_sample_cfg:
  1191                           	callstack 26
  1192   0018EE                     
  1193                           ;../MCAL_layer/SPI/hal_spi.c: 161: static __attribute__((inline)) void mssp_spi_clk_samp
      +                          le_cfg(const spi_t *_spi);../MCAL_layer/SPI/hal_spi.c: 162: {;../MCAL_layer/SPI/hal_spi.
      +                          c: 164:     switch (_spi->master_sample_bit)
  1194   0018EE  EF7F  F00C         	goto	l6245
  1195   0018F2                     l1663:
  1196                           
  1197                           ;../MCAL_layer/SPI/hal_spi.c: 167:         (SSPSTATbits.SMP = 1);
  1198   0018F2  8EC7               	bsf	199,7,c	;volatile
  1199                           
  1200                           ;../MCAL_layer/SPI/hal_spi.c: 168:         break;
  1201   0018F4  EF9F  F00C         	goto	l1667
  1202   0018F8                     l1665:
  1203                           
  1204                           ;../MCAL_layer/SPI/hal_spi.c: 171:         (SSPSTATbits.SMP = 0);
  1205   0018F8  9EC7               	bcf	199,7,c	;volatile
  1206                           
  1207                           ;../MCAL_layer/SPI/hal_spi.c: 172:         break;
  1208   0018FA  EF9F  F00C         	goto	l1667
  1209   0018FE                     l6245:
  1210   0018FE  506F               	movf	mssp_spi_clk_sample_cfg@_spi^0,w,c
  1211   001900  6ED9               	movwf	fsr2l,c
  1212   001902  6ADA               	clrf	fsr2h,c
  1213   001904  BADF               	btfsc	indf2,5,c
  1214   001906  EF87  F00C         	goto	u4611
  1215   00190A  EF8A  F00C         	goto	u4610
  1216   00190E                     u4611:
  1217   00190E  0E01               	movlw	1
  1218   001910  EF8B  F00C         	goto	u4620
  1219   001914                     u4610:
  1220   001914  0E00               	movlw	0
  1221   001916                     u4620:
  1222   001916  6E70               	movwf	??_mssp_spi_clk_sample_cfg^0,c
  1223   001918  6A71               	clrf	(??_mssp_spi_clk_sample_cfg+1)^0,c
  1224                           
  1225                           ; Switch on 2 bytes has been partitioned into a top level switch of size 1, and 1 sub-sw
      +                          itches
  1226                           ; Switch size 1, requested type "simple"
  1227                           ; Number of cases is 1, Range of values is 0 to 0
  1228                           ; switch strategies available:
  1229                           ; Name         Instructions Cycles
  1230                           ; simple_byte            4     3 (average)
  1231                           ;	Chosen strategy is simple_byte
  1232   00191A  5071               	movf	(??_mssp_spi_clk_sample_cfg+1)^0,w,c
  1233   00191C  0A00               	xorlw	0	; case 0
  1234   00191E  B4D8               	btfsc	status,2,c
  1235   001920  EF94  F00C         	goto	l7429
  1236   001924  EF9F  F00C         	goto	l1667
  1237   001928                     l7429:
  1238                           
  1239                           ; Switch size 1, requested type "simple"
  1240                           ; Number of cases is 2, Range of values is 0 to 1
  1241                           ; switch strategies available:
  1242                           ; Name         Instructions Cycles
  1243                           ; simple_byte            7     4 (average)
  1244                           ;	Chosen strategy is simple_byte
  1245   001928  5070               	movf	??_mssp_spi_clk_sample_cfg^0,w,c
  1246   00192A  0A00               	xorlw	0	; case 0
  1247   00192C  B4D8               	btfsc	status,2,c
  1248   00192E  EF7C  F00C         	goto	l1665
  1249   001932  0A01               	xorlw	1	; case 1
  1250   001934  B4D8               	btfsc	status,2,c
  1251   001936  EF79  F00C         	goto	l1663
  1252   00193A  EF9F  F00C         	goto	l1667
  1253   00193E                     l1667:
  1254   00193E  0012               	return		;funcret
  1255   001940                     __end_of_mssp_spi_clk_sample_cfg:
  1256                           	callstack 0
  1257                           
  1258 ;; *************** function _mssp_spi_clk_polarity_cfg *****************
  1259 ;; Defined at:
  1260 ;;		line 125 in file "../MCAL_layer/SPI/hal_spi.c"
  1261 ;; Parameters:    Size  Location     Type
  1262 ;;  _spi            1    3[COMRAM] PTR const struct .
  1263 ;;		 -> spi_obj(2), 
  1264 ;; Auto vars:     Size  Location     Type
  1265 ;;		None
  1266 ;; Return value:  Size  Location     Type
  1267 ;;                  1    wreg      void 
  1268 ;; Registers used:
  1269 ;;		wreg, fsr2l, fsr2h, status,2, status,0
  1270 ;; Tracked objects:
  1271 ;;		On entry : 0/0
  1272 ;;		On exit  : 0/0
  1273 ;;		Unchanged: 0/0
  1274 ;; Data sizes:     COMRAM   BANK0   BANK1   BANK2   BANK3   BANK4   BANK5   BANK6   BANK7   BANK8   BANK9  BANK10  BANK1
      +1  BANK12  BANK13  BANK14  BANK15
  1275 ;;      Params:         1       0       0       0       0       0       0       0       0       0       0       0       
      +0       0       0       0       0
  1276 ;;      Locals:         0       0       0       0       0       0       0       0       0       0       0       0       
      +0       0       0       0       0
  1277 ;;      Temps:          2       0       0       0       0       0       0       0       0       0       0       0       
      +0       0       0       0       0
  1278 ;;      Totals:         3       0       0       0       0       0       0       0       0       0       0       0       
      +0       0       0       0       0
  1279 ;;Total ram usage:        3 bytes
  1280 ;; Hardware stack levels used: 1
  1281 ;; Hardware stack levels required when called: 2
  1282 ;; This function calls:
  1283 ;;		Nothing
  1284 ;; This function is called by:
  1285 ;;		_MSSP_SPI_Init
  1286 ;; This function uses a non-reentrant model
  1287 ;;
  1288                           
  1289                           	psect	text6
  1290   001940                     __ptext6:
  1291                           	callstack 0
  1292   001940                     _mssp_spi_clk_polarity_cfg:
  1293                           	callstack 27
  1294   001940                     
  1295                           ;../MCAL_layer/SPI/hal_spi.c: 125: static __attribute__((inline)) void mssp_spi_clk_pola
      +                          rity_cfg(const spi_t *_spi);../MCAL_layer/SPI/hal_spi.c: 126: {;../MCAL_layer/SPI/hal_sp
      +                          i.c: 128:     switch (_spi->spi_clk_polarity)
  1296   001940  EFA8  F00C         	goto	l6359
  1297   001944                     l1647:
  1298                           
  1299                           ;../MCAL_layer/SPI/hal_spi.c: 131:         (SSPCON1bits.CKP = 1);
  1300   001944  88C6               	bsf	198,4,c	;volatile
  1301                           
  1302                           ;../MCAL_layer/SPI/hal_spi.c: 132:         break;
  1303   001946  EFC8  F00C         	goto	l1651
  1304   00194A                     l1649:
  1305                           
  1306                           ;../MCAL_layer/SPI/hal_spi.c: 135:         (SSPCON1bits.CKP = 0);
  1307   00194A  98C6               	bcf	198,4,c	;volatile
  1308                           
  1309                           ;../MCAL_layer/SPI/hal_spi.c: 136:         break;
  1310   00194C  EFC8  F00C         	goto	l1651
  1311   001950                     l6359:
  1312   001950  506F               	movf	mssp_spi_clk_polarity_cfg@_spi^0,w,c
  1313   001952  6ED9               	movwf	fsr2l,c
  1314   001954  6ADA               	clrf	fsr2h,c
  1315   001956  BEDF               	btfsc	indf2,7,c
  1316   001958  EFB0  F00C         	goto	u4721
  1317   00195C  EFB3  F00C         	goto	u4720
  1318   001960                     u4721:
  1319   001960  0E01               	movlw	1
  1320   001962  EFB4  F00C         	goto	u4730
  1321   001966                     u4720:
  1322   001966  0E00               	movlw	0
  1323   001968                     u4730:
  1324   001968  6E70               	movwf	??_mssp_spi_clk_polarity_cfg^0,c
  1325   00196A  6A71               	clrf	(??_mssp_spi_clk_polarity_cfg+1)^0,c
  1326                           
  1327                           ; Switch on 2 bytes has been partitioned into a top level switch of size 1, and 1 sub-sw
      +                          itches
  1328                           ; Switch size 1, requested type "simple"
  1329                           ; Number of cases is 1, Range of values is 0 to 0
  1330                           ; switch strategies available:
  1331                           ; Name         Instructions Cycles
  1332                           ; simple_byte            4     3 (average)
  1333                           ;	Chosen strategy is simple_byte
  1334   00196C  5071               	movf	(??_mssp_spi_clk_polarity_cfg+1)^0,w,c
  1335   00196E  0A00               	xorlw	0	; case 0
  1336   001970  B4D8               	btfsc	status,2,c
  1337   001972  EFBD  F00C         	goto	l7431
  1338   001976  EFC8  F00C         	goto	l1651
  1339   00197A                     l7431:
  1340                           
  1341                           ; Switch size 1, requested type "simple"
  1342                           ; Number of cases is 2, Range of values is 0 to 1
  1343                           ; switch strategies available:
  1344                           ; Name         Instructions Cycles
  1345                           ; simple_byte            7     4 (average)
  1346                           ;	Chosen strategy is simple_byte
  1347   00197A  5070               	movf	??_mssp_spi_clk_polarity_cfg^0,w,c
  1348   00197C  0A00               	xorlw	0	; case 0
  1349   00197E  B4D8               	btfsc	status,2,c
  1350   001980  EFA5  F00C         	goto	l1649
  1351   001984  0A01               	xorlw	1	; case 1
  1352   001986  B4D8               	btfsc	status,2,c
  1353   001988  EFA2  F00C         	goto	l1647
  1354   00198C  EFC8  F00C         	goto	l1651
  1355   001990                     l1651:
  1356   001990  0012               	return		;funcret
  1357   001992                     __end_of_mssp_spi_clk_polarity_cfg:
  1358                           	callstack 0
  1359                           
  1360 ;; *************** function _mssp_spi_clk_phase_cfg *****************
  1361 ;; Defined at:
  1362 ;;		line 143 in file "../MCAL_layer/SPI/hal_spi.c"
  1363 ;; Parameters:    Size  Location     Type
  1364 ;;  _spi            1    3[COMRAM] PTR const struct .
  1365 ;;		 -> spi_obj(2), 
  1366 ;; Auto vars:     Size  Location     Type
  1367 ;;		None
  1368 ;; Return value:  Size  Location     Type
  1369 ;;                  1    wreg      void 
  1370 ;; Registers used:
  1371 ;;		wreg, fsr2l, fsr2h, status,2, status,0
  1372 ;; Tracked objects:
  1373 ;;		On entry : 0/0
  1374 ;;		On exit  : 0/0
  1375 ;;		Unchanged: 0/0
  1376 ;; Data sizes:     COMRAM   BANK0   BANK1   BANK2   BANK3   BANK4   BANK5   BANK6   BANK7   BANK8   BANK9  BANK10  BANK1
      +1  BANK12  BANK13  BANK14  BANK15
  1377 ;;      Params:         1       0       0       0       0       0       0       0       0       0       0       0       
      +0       0       0       0       0
  1378 ;;      Locals:         0       0       0       0       0       0       0       0       0       0       0       0       
      +0       0       0       0       0
  1379 ;;      Temps:          2       0       0       0       0       0       0       0       0       0       0       0       
      +0       0       0       0       0
  1380 ;;      Totals:         3       0       0       0       0       0       0       0       0       0       0       0       
      +0       0       0       0       0
  1381 ;;Total ram usage:        3 bytes
  1382 ;; Hardware stack levels used: 1
  1383 ;; Hardware stack levels required when called: 2
  1384 ;; This function calls:
  1385 ;;		Nothing
  1386 ;; This function is called by:
  1387 ;;		_MSSP_SPI_Init
  1388 ;; This function uses a non-reentrant model
  1389 ;;
  1390                           
  1391                           	psect	text7
  1392   001992                     __ptext7:
  1393                           	callstack 0
  1394   001992                     _mssp_spi_clk_phase_cfg:
  1395                           	callstack 27
  1396   001992                     
  1397                           ;../MCAL_layer/SPI/hal_spi.c: 143: static __attribute__((inline)) void mssp_spi_clk_phas
      +                          e_cfg(const spi_t *_spi);../MCAL_layer/SPI/hal_spi.c: 144: {;../MCAL_layer/SPI/hal_spi.c
      +                          : 146:     switch (_spi->spi_transmit_mode)
  1398   001992  EFD1  F00C         	goto	l6369
  1399   001996                     l1655:
  1400                           
  1401                           ;../MCAL_layer/SPI/hal_spi.c: 149:         (SSPSTATbits.CKE = 0);
  1402   001996  9CC7               	bcf	199,6,c	;volatile
  1403                           
  1404                           ;../MCAL_layer/SPI/hal_spi.c: 150:         break;
  1405   001998  EFF1  F00C         	goto	l1659
  1406   00199C                     l1657:
  1407                           
  1408                           ;../MCAL_layer/SPI/hal_spi.c: 153:         (SSPSTATbits.CKE = 1);
  1409   00199C  8CC7               	bsf	199,6,c	;volatile
  1410                           
  1411                           ;../MCAL_layer/SPI/hal_spi.c: 154:         break;
  1412   00199E  EFF1  F00C         	goto	l1659
  1413   0019A2                     l6369:
  1414   0019A2  506F               	movf	mssp_spi_clk_phase_cfg@_spi^0,w,c
  1415   0019A4  6ED9               	movwf	fsr2l,c
  1416   0019A6  6ADA               	clrf	fsr2h,c
  1417   0019A8  BCDF               	btfsc	indf2,6,c
  1418   0019AA  EFD9  F00C         	goto	u4741
  1419   0019AE  EFDC  F00C         	goto	u4740
  1420   0019B2                     u4741:
  1421   0019B2  0E01               	movlw	1
  1422   0019B4  EFDD  F00C         	goto	u4750
  1423   0019B8                     u4740:
  1424   0019B8  0E00               	movlw	0
  1425   0019BA                     u4750:
  1426   0019BA  6E70               	movwf	??_mssp_spi_clk_phase_cfg^0,c
  1427   0019BC  6A71               	clrf	(??_mssp_spi_clk_phase_cfg+1)^0,c
  1428                           
  1429                           ; Switch on 2 bytes has been partitioned into a top level switch of size 1, and 1 sub-sw
      +                          itches
  1430                           ; Switch size 1, requested type "simple"
  1431                           ; Number of cases is 1, Range of values is 0 to 0
  1432                           ; switch strategies available:
  1433                           ; Name         Instructions Cycles
  1434                           ; simple_byte            4     3 (average)
  1435                           ;	Chosen strategy is simple_byte
  1436   0019BE  5071               	movf	(??_mssp_spi_clk_phase_cfg+1)^0,w,c
  1437   0019C0  0A00               	xorlw	0	; case 0
  1438   0019C2  B4D8               	btfsc	status,2,c
  1439   0019C4  EFE6  F00C         	goto	l7433
  1440   0019C8  EFF1  F00C         	goto	l1659
  1441   0019CC                     l7433:
  1442                           
  1443                           ; Switch size 1, requested type "simple"
  1444                           ; Number of cases is 2, Range of values is 0 to 1
  1445                           ; switch strategies available:
  1446                           ; Name         Instructions Cycles
  1447                           ; simple_byte            7     4 (average)
  1448                           ;	Chosen strategy is simple_byte
  1449   0019CC  5070               	movf	??_mssp_spi_clk_phase_cfg^0,w,c
  1450   0019CE  0A00               	xorlw	0	; case 0
  1451   0019D0  B4D8               	btfsc	status,2,c
  1452   0019D2  EFCB  F00C         	goto	l1655
  1453   0019D6  0A01               	xorlw	1	; case 1
  1454   0019D8  B4D8               	btfsc	status,2,c
  1455   0019DA  EFCE  F00C         	goto	l1657
  1456   0019DE  EFF1  F00C         	goto	l1659
  1457   0019E2                     l1659:
  1458   0019E2  0012               	return		;funcret
  1459   0019E4                     __end_of_mssp_spi_clk_phase_cfg:
  1460                           	callstack 0
  1461                           
  1462 ;; *************** function _gpio_pin_initalize *****************
  1463 ;; Defined at:
  1464 ;;		line 159 in file "../MCAL_layer/GPIO/hal_gpio.c"
  1465 ;; Parameters:    Size  Location     Type
  1466 ;;  _pin_config     1   11[COMRAM] PTR const struct .
  1467 ;;		 -> _pin4(1), _pin3(1), _pin2(1), spi_obj(2), 
  1468 ;;		 -> relay_initialize@pin(1), led_initalize@pin_init(1), dc_motor_initialize@pin2(1), dc_motor_initialize@pin1(1), 
  1469 ;; Auto vars:     Size  Location     Type
  1470 ;;  ret             1   12[COMRAM] unsigned char 
  1471 ;; Return value:  Size  Location     Type
  1472 ;;                  1    wreg      unsigned char 
  1473 ;; Registers used:
  1474 ;;		wreg, fsr2l, fsr2h, status,2, status,0, prodl, prodh, cstack
  1475 ;; Tracked objects:
  1476 ;;		On entry : 0/0
  1477 ;;		On exit  : 0/0
  1478 ;;		Unchanged: 0/0
  1479 ;; Data sizes:     COMRAM   BANK0   BANK1   BANK2   BANK3   BANK4   BANK5   BANK6   BANK7   BANK8   BANK9  BANK10  BANK1
      +1  BANK12  BANK13  BANK14  BANK15
  1480 ;;      Params:         1       0       0       0       0       0       0       0       0       0       0       0       
      +0       0       0       0       0
  1481 ;;      Locals:         1       0       0       0       0       0       0       0       0       0       0       0       
      +0       0       0       0       0
  1482 ;;      Temps:          0       0       0       0       0       0       0       0       0       0       0       0       
      +0       0       0       0       0
  1483 ;;      Totals:         2       0       0       0       0       0       0       0       0       0       0       0       
      +0       0       0       0       0
  1484 ;;Total ram usage:        2 bytes
  1485 ;; Hardware stack levels used: 1
  1486 ;; Hardware stack levels required when called: 3
  1487 ;; This function calls:
  1488 ;;		_gpio_pin_direction_initalize
  1489 ;;		_gpio_pin_write_logic
  1490 ;; This function is called by:
  1491 ;;		_MSSP_SPI_Init
  1492 ;;		_MSSP_SPI_Send_Data_specific_ss_Blocking
  1493 ;;		_dc_motor_initialize
  1494 ;;		_keypad_initalize
  1495 ;;		_lcd_4bit_initalize
  1496 ;;		_lcd_8bit_initalize
  1497 ;;		_led_initalize
  1498 ;;		_relay_initialize
  1499 ;;		_ssd_initalize
  1500 ;; This function uses a non-reentrant model
  1501 ;;
  1502                           
  1503                           	psect	text8
  1504   0019E4                     __ptext8:
  1505                           	callstack 0
  1506   0019E4                     _gpio_pin_initalize:
  1507                           	callstack 26
  1508   0019E4                     
  1509                           ;../MCAL_layer/GPIO/hal_gpio.c: 162:     if(((void*)0) == _pin_config)
  1510   0019E4  5077               	movf	gpio_pin_initalize@_pin_config^0,w,c
  1511   0019E6  A4D8               	btfss	status,2,c
  1512   0019E8  EFF8  F00C         	goto	u4631
  1513   0019EC  EFFA  F00C         	goto	u4630
  1514   0019F0                     u4631:
  1515   0019F0  EFFE  F00C         	goto	l6255
  1516   0019F4                     u4630:
  1517   0019F4                     
  1518                           ;../MCAL_layer/GPIO/hal_gpio.c: 163:     {;../MCAL_layer/GPIO/hal_gpio.c: 164:         r
      +                          et=(Std_ReturnType)0x00;
  1519   0019F4  0E00               	movlw	0
  1520   0019F6  6E78               	movwf	gpio_pin_initalize@ret^0,c
  1521                           
  1522                           ;../MCAL_layer/GPIO/hal_gpio.c: 165:     }
  1523   0019F8  EF0F  F00D         	goto	l6257
  1524   0019FC                     l6255:
  1525                           
  1526                           ;../MCAL_layer/GPIO/hal_gpio.c: 167:     {;../MCAL_layer/GPIO/hal_gpio.c: 168:         r
      +                          et=gpio_pin_direction_initalize(_pin_config);
  1527   0019FC  C077  F06F         	movff	gpio_pin_initalize@_pin_config,gpio_pin_direction_initalize@_pin_config
  1528   001A00  EC24  F00A         	call	_gpio_pin_direction_initalize	;wreg free
  1529   001A04  6E78               	movwf	gpio_pin_initalize@ret^0,c
  1530                           
  1531                           ;../MCAL_layer/GPIO/hal_gpio.c: 169:         ret=gpio_pin_write_logic(_pin_config,_pin_c
      +                          onfig->logic);
  1532   001A06  C077  F06F         	movff	gpio_pin_initalize@_pin_config,gpio_pin_write_logic@_pin_config
  1533   001A0A  5077               	movf	gpio_pin_initalize@_pin_config^0,w,c
  1534   001A0C  6ED9               	movwf	fsr2l,c
  1535   001A0E  6ADA               	clrf	fsr2h,c
  1536   001A10  0E00               	movlw	0
  1537   001A12  BEDF               	btfsc	indf2,7,c
  1538   001A14  0E01               	movlw	1
  1539   001A16  6E70               	movwf	gpio_pin_write_logic@logic^0,c
  1540   001A18  ECC5  F00A         	call	_gpio_pin_write_logic	;wreg free
  1541   001A1C  6E78               	movwf	gpio_pin_initalize@ret^0,c
  1542   001A1E                     l6257:
  1543                           
  1544                           ;../MCAL_layer/GPIO/hal_gpio.c: 171:     return ret;
  1545   001A1E  5078               	movf	gpio_pin_initalize@ret^0,w,c
  1546   001A20  0012               	return		;funcret
  1547   001A22                     __end_of_gpio_pin_initalize:
  1548                           	callstack 0
  1549                           
  1550 ;; *************** function _gpio_pin_write_logic *****************
  1551 ;; Defined at:
  1552 ;;		line 82 in file "../MCAL_layer/GPIO/hal_gpio.c"
  1553 ;; Parameters:    Size  Location     Type
  1554 ;;  _pin_config     1    3[COMRAM] PTR const struct .
  1555 ;;		 -> _pin4(1), _pin3(1), _pin2(1), spi_obj(2), 
  1556 ;;		 -> relay_turn_off@pin(1), relay_turn_on@pin(1), relay_initialize@pin(1), led_turn_off@pin_init(1), 
  1557 ;;		 -> led_turn_on@pin_init(1), led_initalize@pin_init(1), dc_motor_stop@pin2(1), dc_motor_stop@pin1(1), 
  1558 ;;		 -> dc_motor_move_left@pin2(1), dc_motor_move_left@pin1(1), dc_motor_move_right@pin2(1), dc_motor_move_right@pin1(1)
      +, 
  1559 ;;		 -> dc_motor_initialize@pin2(1), dc_motor_initialize@pin1(1), 
  1560 ;;  logic           1    4[COMRAM] enum E2811
  1561 ;; Auto vars:     Size  Location     Type
  1562 ;;  status          1   10[COMRAM] unsigned char 
  1563 ;; Return value:  Size  Location     Type
  1564 ;;                  1    wreg      unsigned char 
  1565 ;; Registers used:
  1566 ;;		wreg, fsr2l, fsr2h, status,2, status,0, prodl, prodh
  1567 ;; Tracked objects:
  1568 ;;		On entry : 0/0
  1569 ;;		On exit  : 0/0
  1570 ;;		Unchanged: 0/0
  1571 ;; Data sizes:     COMRAM   BANK0   BANK1   BANK2   BANK3   BANK4   BANK5   BANK6   BANK7   BANK8   BANK9  BANK10  BANK1
      +1  BANK12  BANK13  BANK14  BANK15
  1572 ;;      Params:         2       0       0       0       0       0       0       0       0       0       0       0       
      +0       0       0       0       0
  1573 ;;      Locals:         1       0       0       0       0       0       0       0       0       0       0       0       
      +0       0       0       0       0
  1574 ;;      Temps:          5       0       0       0       0       0       0       0       0       0       0       0       
      +0       0       0       0       0
  1575 ;;      Totals:         8       0       0       0       0       0       0       0       0       0       0       0       
      +0       0       0       0       0
  1576 ;;Total ram usage:        8 bytes
  1577 ;; Hardware stack levels used: 1
  1578 ;; Hardware stack levels required when called: 2
  1579 ;; This function calls:
  1580 ;;		Nothing
  1581 ;; This function is called by:
  1582 ;;		_gpio_pin_initalize
  1583 ;;		_MSSP_SPI_Send_Data_default_ss_Blocking
  1584 ;;		_MSSP_SPI_Send_Data_specific_ss_Blocking
  1585 ;;		_dc_motor_move_right
  1586 ;;		_dc_motor_move_left
  1587 ;;		_dc_motor_stop
  1588 ;;		_keypad_get_value
  1589 ;;		_lcd_4bit_send_command
  1590 ;;		_lcd_4bit_send_data
  1591 ;;		_lcd_8bit_send_command
  1592 ;;		_lcd_8bit_send_data
  1593 ;;		_lcd_send_4bits
  1594 ;;		_lcd_4bit_send_enable
  1595 ;;		_lcd_send_8bits
  1596 ;;		_lcd_8bit_send_enable
  1597 ;;		_led_turn_on
  1598 ;;		_led_turn_off
  1599 ;;		_relay_turn_on
  1600 ;;		_relay_turn_off
  1601 ;;		_ssd_write_number
  1602 ;; This function uses a non-reentrant model
  1603 ;;
  1604                           
  1605                           	psect	text9
  1606   00158A                     __ptext9:
  1607                           	callstack 0
  1608   00158A                     _gpio_pin_write_logic:
  1609                           	callstack 27
  1610   00158A                     
  1611                           ;../MCAL_layer/GPIO/hal_gpio.c: 82: Std_ReturnType gpio_pin_write_logic(const pin_config
      +                          _t* _pin_config,logic_t logic);../MCAL_layer/GPIO/hal_gpio.c: 83: {;../MCAL_layer/GPIO/h
      +                          al_gpio.c: 84:     Std_ReturnType status=(Std_ReturnType)0x01;
  1612   00158A  0E01               	movlw	1
  1613   00158C  6E76               	movwf	gpio_pin_write_logic@status^0,c
  1614                           
  1615                           ;../MCAL_layer/GPIO/hal_gpio.c: 85:     if(((void*)0)==_pin_config || _pin_config->pin >
      +                           8 -1 || _pin_config->port > 5 -1)
  1616   00158E  506F               	movf	gpio_pin_write_logic@_pin_config^0,w,c
  1617   001590  B4D8               	btfsc	status,2,c
  1618   001592  EFCD  F00A         	goto	u4561
  1619   001596  EFCF  F00A         	goto	u4560
  1620   00159A                     u4561:
  1621   00159A  EFED  F00A         	goto	l6221
  1622   00159E                     u4560:
  1623   00159E  506F               	movf	gpio_pin_write_logic@_pin_config^0,w,c
  1624   0015A0  6ED9               	movwf	fsr2l,c
  1625   0015A2  6ADA               	clrf	fsr2h,c
  1626   0015A4  30DF               	rrcf	223,w,c
  1627   0015A6  32E8               	rrcf	wreg,f,c
  1628   0015A8  32E8               	rrcf	wreg,f,c
  1629   0015AA  0B07               	andlw	7
  1630   0015AC  6E71               	movwf	??_gpio_pin_write_logic^0,c
  1631   0015AE  0E08               	movlw	8
  1632   0015B0  6071               	cpfslt	??_gpio_pin_write_logic^0,c
  1633   0015B2  EFDD  F00A         	goto	u4571
  1634   0015B6  EFDF  F00A         	goto	u4570
  1635   0015BA                     u4571:
  1636   0015BA  EFED  F00A         	goto	l6221
  1637   0015BE                     u4570:
  1638   0015BE  506F               	movf	gpio_pin_write_logic@_pin_config^0,w,c
  1639   0015C0  6ED9               	movwf	fsr2l,c
  1640   0015C2  6ADA               	clrf	fsr2h,c
  1641   0015C4  50DF               	movf	223,w,c
  1642   0015C6  0B07               	andlw	7
  1643   0015C8  6E71               	movwf	??_gpio_pin_write_logic^0,c
  1644   0015CA  0E04               	movlw	4
  1645   0015CC  6471               	cpfsgt	??_gpio_pin_write_logic^0,c
  1646   0015CE  EFEB  F00A         	goto	u4581
  1647   0015D2  EFED  F00A         	goto	u4580
  1648   0015D6                     u4581:
  1649   0015D6  EF44  F00B         	goto	l6231
  1650   0015DA                     u4580:
  1651   0015DA                     l6221:
  1652                           
  1653                           ;../MCAL_layer/GPIO/hal_gpio.c: 86:     {;../MCAL_layer/GPIO/hal_gpio.c: 87:         sta
      +                          tus=(Std_ReturnType)0x00;
  1654   0015DA  0E00               	movlw	0
  1655   0015DC  6E76               	movwf	gpio_pin_write_logic@status^0,c
  1656                           
  1657                           ;../MCAL_layer/GPIO/hal_gpio.c: 88:     }
  1658   0015DE  EF59  F00B         	goto	l6233
  1659   0015E2                     l6223:
  1660                           
  1661                           ;../MCAL_layer/GPIO/hal_gpio.c: 93:             (*lat_registers[_pin_config->port]|=((ui
      +                          nt8)0x01<<_pin_config->pin));
  1662   0015E2  506F               	movf	gpio_pin_write_logic@_pin_config^0,w,c
  1663   0015E4  6ED9               	movwf	fsr2l,c
  1664   0015E6  6ADA               	clrf	fsr2h,c
  1665   0015E8  30DF               	rrcf	223,w,c
  1666   0015EA  32E8               	rrcf	wreg,f,c
  1667   0015EC  32E8               	rrcf	wreg,f,c
  1668   0015EE  0B07               	andlw	7
  1669   0015F0  6E71               	movwf	??_gpio_pin_write_logic^0,c
  1670   0015F2  0E01               	movlw	1
  1671   0015F4  6E72               	movwf	(??_gpio_pin_write_logic+1)^0,c
  1672   0015F6  2A71               	incf	??_gpio_pin_write_logic^0,f,c
  1673   0015F8  EF00  F00B         	goto	u4594
  1674   0015FC                     u4595:
  1675   0015FC  90D8               	bcf	status,0,c
  1676   0015FE  3672               	rlcf	(??_gpio_pin_write_logic+1)^0,f,c
  1677   001600                     u4594:
  1678   001600  2E71               	decfsz	??_gpio_pin_write_logic^0,f,c
  1679   001602  EFFE  F00A         	goto	u4595
  1680   001606  506F               	movf	gpio_pin_write_logic@_pin_config^0,w,c
  1681   001608  6ED9               	movwf	fsr2l,c
  1682   00160A  6ADA               	clrf	fsr2h,c
  1683   00160C  50DF               	movf	223,w,c
  1684   00160E  0B07               	andlw	7
  1685   001610  0D02               	mullw	2
  1686   001612  50F3               	movf	243,w,c
  1687   001614  0F48               	addlw	low _lat_registers
  1688   001616  6ED9               	movwf	fsr2l,c
  1689   001618  6ADA               	clrf	fsr2h,c
  1690   00161A  CFDE F073          	movff	postinc2,??_gpio_pin_write_logic+2
  1691   00161E  CFDD F074          	movff	postdec2,??_gpio_pin_write_logic+3
  1692   001622  C073  FFD9         	movff	??_gpio_pin_write_logic+2,fsr2l
  1693   001626  C074  FFDA         	movff	??_gpio_pin_write_logic+3,fsr2h
  1694   00162A  5072               	movf	(??_gpio_pin_write_logic+1)^0,w,c
  1695   00162C  12DF               	iorwf	indf2,f,c
  1696                           
  1697                           ;../MCAL_layer/GPIO/hal_gpio.c: 94:             break;
  1698   00162E  EF59  F00B         	goto	l6233
  1699   001632                     l6225:
  1700                           
  1701                           ;../MCAL_layer/GPIO/hal_gpio.c: 97:             (*lat_registers[_pin_config->port]&=~((u
      +                          int8)0x01<<_pin_config->pin));
  1702   001632  506F               	movf	gpio_pin_write_logic@_pin_config^0,w,c
  1703   001634  6ED9               	movwf	fsr2l,c
  1704   001636  6ADA               	clrf	fsr2h,c
  1705   001638  30DF               	rrcf	223,w,c
  1706   00163A  32E8               	rrcf	wreg,f,c
  1707   00163C  32E8               	rrcf	wreg,f,c
  1708   00163E  0B07               	andlw	7
  1709   001640  6E71               	movwf	??_gpio_pin_write_logic^0,c
  1710   001642  0E01               	movlw	1
  1711   001644  6E72               	movwf	(??_gpio_pin_write_logic+1)^0,c
  1712   001646  2A71               	incf	??_gpio_pin_write_logic^0,f,c
  1713   001648  EF28  F00B         	goto	u4604
  1714   00164C                     u4605:
  1715   00164C  90D8               	bcf	status,0,c
  1716   00164E  3672               	rlcf	(??_gpio_pin_write_logic+1)^0,f,c
  1717   001650                     u4604:
  1718   001650  2E71               	decfsz	??_gpio_pin_write_logic^0,f,c
  1719   001652  EF26  F00B         	goto	u4605
  1720   001656  5072               	movf	(??_gpio_pin_write_logic+1)^0,w,c
  1721   001658  0AFF               	xorlw	255
  1722   00165A  6E73               	movwf	(??_gpio_pin_write_logic+2)^0,c
  1723   00165C  506F               	movf	gpio_pin_write_logic@_pin_config^0,w,c
  1724   00165E  6ED9               	movwf	fsr2l,c
  1725   001660  6ADA               	clrf	fsr2h,c
  1726   001662  50DF               	movf	223,w,c
  1727   001664  0B07               	andlw	7
  1728   001666  0D02               	mullw	2
  1729   001668  50F3               	movf	243,w,c
  1730   00166A  0F48               	addlw	low _lat_registers
  1731   00166C  6ED9               	movwf	fsr2l,c
  1732   00166E  6ADA               	clrf	fsr2h,c
  1733   001670  CFDE F074          	movff	postinc2,??_gpio_pin_write_logic+3
  1734   001674  CFDD F075          	movff	postdec2,??_gpio_pin_write_logic+4
  1735   001678  C074  FFD9         	movff	??_gpio_pin_write_logic+3,fsr2l
  1736   00167C  C075  FFDA         	movff	??_gpio_pin_write_logic+4,fsr2h
  1737   001680  5073               	movf	(??_gpio_pin_write_logic+2)^0,w,c
  1738   001682  16DF               	andwf	indf2,f,c
  1739                           
  1740                           ;../MCAL_layer/GPIO/hal_gpio.c: 98:             break;
  1741   001684  EF59  F00B         	goto	l6233
  1742   001688                     l6231:
  1743   001688  5070               	movf	gpio_pin_write_logic@logic^0,w,c
  1744   00168A  6E71               	movwf	??_gpio_pin_write_logic^0,c
  1745   00168C  6A72               	clrf	(??_gpio_pin_write_logic+1)^0,c
  1746                           
  1747                           ; Switch on 2 bytes has been partitioned into a top level switch of size 1, and 1 sub-sw
      +                          itches
  1748                           ; Switch size 1, requested type "simple"
  1749                           ; Number of cases is 1, Range of values is 0 to 0
  1750                           ; switch strategies available:
  1751                           ; Name         Instructions Cycles
  1752                           ; simple_byte            4     3 (average)
  1753                           ;	Chosen strategy is simple_byte
  1754   00168E  5072               	movf	(??_gpio_pin_write_logic+1)^0,w,c
  1755   001690  0A00               	xorlw	0	; case 0
  1756   001692  B4D8               	btfsc	status,2,c
  1757   001694  EF4E  F00B         	goto	l7435
  1758   001698  EFED  F00A         	goto	l6221
  1759   00169C                     l7435:
  1760                           
  1761                           ; Switch size 1, requested type "simple"
  1762                           ; Number of cases is 2, Range of values is 0 to 1
  1763                           ; switch strategies available:
  1764                           ; Name         Instructions Cycles
  1765                           ; simple_byte            7     4 (average)
  1766                           ;	Chosen strategy is simple_byte
  1767   00169C  5071               	movf	??_gpio_pin_write_logic^0,w,c
  1768   00169E  0A00               	xorlw	0	; case 0
  1769   0016A0  B4D8               	btfsc	status,2,c
  1770   0016A2  EF19  F00B         	goto	l6225
  1771   0016A6  0A01               	xorlw	1	; case 1
  1772   0016A8  B4D8               	btfsc	status,2,c
  1773   0016AA  EFF1  F00A         	goto	l6223
  1774   0016AE  EFED  F00A         	goto	l6221
  1775   0016B2                     l6233:
  1776                           
  1777                           ;../MCAL_layer/GPIO/hal_gpio.c: 104:     return status;
  1778   0016B2  5076               	movf	gpio_pin_write_logic@status^0,w,c
  1779   0016B4  0012               	return		;funcret
  1780   0016B6                     __end_of_gpio_pin_write_logic:
  1781                           	callstack 0
  1782                           
  1783 ;; *************** function _gpio_pin_direction_initalize *****************
  1784 ;; Defined at:
  1785 ;;		line 28 in file "../MCAL_layer/GPIO/hal_gpio.c"
  1786 ;; Parameters:    Size  Location     Type
  1787 ;;  _pin_config     1    3[COMRAM] PTR const struct .
  1788 ;;		 -> _pin4(1), _pin3(1), _pin2(1), spi_obj(2), 
  1789 ;;		 -> adc_input_channel_port_configure@pin(1), relay_initialize@pin(1), led_initalize@pin_init(1), dc_motor_initialize
      +@pin2(1), 
  1790 ;;		 -> dc_motor_initialize@pin1(1), 
  1791 ;; Auto vars:     Size  Location     Type
  1792 ;;  status          1    9[COMRAM] unsigned char 
  1793 ;; Return value:  Size  Location     Type
  1794 ;;                  1    wreg      unsigned char 
  1795 ;; Registers used:
  1796 ;;		wreg, fsr2l, fsr2h, status,2, status,0, prodl, prodh
  1797 ;; Tracked objects:
  1798 ;;		On entry : 0/0
  1799 ;;		On exit  : 0/0
  1800 ;;		Unchanged: 0/0
  1801 ;; Data sizes:     COMRAM   BANK0   BANK1   BANK2   BANK3   BANK4   BANK5   BANK6   BANK7   BANK8   BANK9  BANK10  BANK1
      +1  BANK12  BANK13  BANK14  BANK15
  1802 ;;      Params:         1       0       0       0       0       0       0       0       0       0       0       0       
      +0       0       0       0       0
  1803 ;;      Locals:         1       0       0       0       0       0       0       0       0       0       0       0       
      +0       0       0       0       0
  1804 ;;      Temps:          5       0       0       0       0       0       0       0       0       0       0       0       
      +0       0       0       0       0
  1805 ;;      Totals:         7       0       0       0       0       0       0       0       0       0       0       0       
      +0       0       0       0       0
  1806 ;;Total ram usage:        7 bytes
  1807 ;; Hardware stack levels used: 1
  1808 ;; Hardware stack levels required when called: 2
  1809 ;; This function calls:
  1810 ;;		Nothing
  1811 ;; This function is called by:
  1812 ;;		_gpio_pin_initalize
  1813 ;;		_button_initialize
  1814 ;;		_keypad_initalize
  1815 ;;		_adc_input_channel_port_configure
  1816 ;;		_interrupt_RBx_Init
  1817 ;;		_Interrupt_INTx_Pin_Init
  1818 ;; This function uses a non-reentrant model
  1819 ;;
  1820                           
  1821                           	psect	text10
  1822   001448                     __ptext10:
  1823                           	callstack 0
  1824   001448                     _gpio_pin_direction_initalize:
  1825                           	callstack 26
  1826   001448                     
  1827                           ;../MCAL_layer/GPIO/hal_gpio.c: 28: Std_ReturnType gpio_pin_direction_initalize(const pi
      +                          n_config_t* _pin_config);../MCAL_layer/GPIO/hal_gpio.c: 29: {;../MCAL_layer/GPIO/hal_gpi
      +                          o.c: 30:     Std_ReturnType status=(Std_ReturnType)0x01;
  1828   001448  0E01               	movlw	1
  1829   00144A  6E75               	movwf	gpio_pin_direction_initalize@status^0,c
  1830                           
  1831                           ;../MCAL_layer/GPIO/hal_gpio.c: 32:     if(((void*)0)==_pin_config || _pin_config->pin >
      +                           8 -1 || _pin_config->port > 5 -1)
  1832   00144C  506F               	movf	gpio_pin_direction_initalize@_pin_config^0,w,c
  1833   00144E  B4D8               	btfsc	status,2,c
  1834   001450  EF2C  F00A         	goto	u4491
  1835   001454  EF2E  F00A         	goto	u4490
  1836   001458                     u4491:
  1837   001458  EF4C  F00A         	goto	l6195
  1838   00145C                     u4490:
  1839   00145C  506F               	movf	gpio_pin_direction_initalize@_pin_config^0,w,c
  1840   00145E  6ED9               	movwf	fsr2l,c
  1841   001460  6ADA               	clrf	fsr2h,c
  1842   001462  30DF               	rrcf	223,w,c
  1843   001464  32E8               	rrcf	wreg,f,c
  1844   001466  32E8               	rrcf	wreg,f,c
  1845   001468  0B07               	andlw	7
  1846   00146A  6E70               	movwf	??_gpio_pin_direction_initalize^0,c
  1847   00146C  0E08               	movlw	8
  1848   00146E  6070               	cpfslt	??_gpio_pin_direction_initalize^0,c
  1849   001470  EF3C  F00A         	goto	u4501
  1850   001474  EF3E  F00A         	goto	u4500
  1851   001478                     u4501:
  1852   001478  EF4C  F00A         	goto	l6195
  1853   00147C                     u4500:
  1854   00147C  506F               	movf	gpio_pin_direction_initalize@_pin_config^0,w,c
  1855   00147E  6ED9               	movwf	fsr2l,c
  1856   001480  6ADA               	clrf	fsr2h,c
  1857   001482  50DF               	movf	223,w,c
  1858   001484  0B07               	andlw	7
  1859   001486  6E70               	movwf	??_gpio_pin_direction_initalize^0,c
  1860   001488  0E04               	movlw	4
  1861   00148A  6470               	cpfsgt	??_gpio_pin_direction_initalize^0,c
  1862   00148C  EF4A  F00A         	goto	u4511
  1863   001490  EF4C  F00A         	goto	u4510
  1864   001494                     u4511:
  1865   001494  EFA3  F00A         	goto	l6205
  1866   001498                     u4510:
  1867   001498                     l6195:
  1868                           
  1869                           ;../MCAL_layer/GPIO/hal_gpio.c: 33:     {;../MCAL_layer/GPIO/hal_gpio.c: 34:         sta
      +                          tus =(Std_ReturnType)0x00;
  1870   001498  0E00               	movlw	0
  1871   00149A  6E75               	movwf	gpio_pin_direction_initalize@status^0,c
  1872                           
  1873                           ;../MCAL_layer/GPIO/hal_gpio.c: 35:     }
  1874   00149C  EFC3  F00A         	goto	l6207
  1875   0014A0                     l6197:
  1876   0014A0  506F               	movf	gpio_pin_direction_initalize@_pin_config^0,w,c
  1877   0014A2  6ED9               	movwf	fsr2l,c
  1878   0014A4  6ADA               	clrf	fsr2h,c
  1879   0014A6  30DF               	rrcf	223,w,c
  1880   0014A8  32E8               	rrcf	wreg,f,c
  1881   0014AA  32E8               	rrcf	wreg,f,c
  1882   0014AC  0B07               	andlw	7
  1883   0014AE  6E70               	movwf	??_gpio_pin_direction_initalize^0,c
  1884   0014B0  0E01               	movlw	1
  1885   0014B2  6E71               	movwf	(??_gpio_pin_direction_initalize+1)^0,c
  1886   0014B4  2A70               	incf	??_gpio_pin_direction_initalize^0,f,c
  1887   0014B6  EF5F  F00A         	goto	u4524
  1888   0014BA                     u4525:
  1889   0014BA  90D8               	bcf	status,0,c
  1890   0014BC  3671               	rlcf	(??_gpio_pin_direction_initalize+1)^0,f,c
  1891   0014BE                     u4524:
  1892   0014BE  2E70               	decfsz	??_gpio_pin_direction_initalize^0,f,c
  1893   0014C0  EF5D  F00A         	goto	u4525
  1894   0014C4  5071               	movf	(??_gpio_pin_direction_initalize+1)^0,w,c
  1895   0014C6  0AFF               	xorlw	255
  1896   0014C8  6E72               	movwf	(??_gpio_pin_direction_initalize+2)^0,c
  1897   0014CA  506F               	movf	gpio_pin_direction_initalize@_pin_config^0,w,c
  1898   0014CC  6ED9               	movwf	fsr2l,c
  1899   0014CE  6ADA               	clrf	fsr2h,c
  1900   0014D0  50DF               	movf	223,w,c
  1901   0014D2  0B07               	andlw	7
  1902   0014D4  0D02               	mullw	2
  1903   0014D6  50F3               	movf	243,w,c
  1904   0014D8  0F52               	addlw	low _tris_registers
  1905   0014DA  6ED9               	movwf	fsr2l,c
  1906   0014DC  6ADA               	clrf	fsr2h,c
  1907   0014DE  CFDE F073          	movff	postinc2,??_gpio_pin_direction_initalize+3
  1908   0014E2  CFDD F074          	movff	postdec2,??_gpio_pin_direction_initalize+4
  1909   0014E6  C073  FFD9         	movff	??_gpio_pin_direction_initalize+3,fsr2l
  1910   0014EA  C074  FFDA         	movff	??_gpio_pin_direction_initalize+4,fsr2h
  1911   0014EE  5072               	movf	(??_gpio_pin_direction_initalize+2)^0,w,c
  1912   0014F0  16DF               	andwf	indf2,f,c
  1913                           
  1914                           ;../MCAL_layer/GPIO/hal_gpio.c: 40:             break;
  1915   0014F2  EFC3  F00A         	goto	l6207
  1916   0014F6                     l6199:
  1917   0014F6  506F               	movf	gpio_pin_direction_initalize@_pin_config^0,w,c
  1918   0014F8  6ED9               	movwf	fsr2l,c
  1919   0014FA  6ADA               	clrf	fsr2h,c
  1920   0014FC  30DF               	rrcf	223,w,c
  1921   0014FE  32E8               	rrcf	wreg,f,c
  1922   001500  32E8               	rrcf	wreg,f,c
  1923   001502  0B07               	andlw	7
  1924   001504  6E70               	movwf	??_gpio_pin_direction_initalize^0,c
  1925   001506  0E01               	movlw	1
  1926   001508  6E71               	movwf	(??_gpio_pin_direction_initalize+1)^0,c
  1927   00150A  2A70               	incf	??_gpio_pin_direction_initalize^0,f,c
  1928   00150C  EF8A  F00A         	goto	u4534
  1929   001510                     u4535:
  1930   001510  90D8               	bcf	status,0,c
  1931   001512  3671               	rlcf	(??_gpio_pin_direction_initalize+1)^0,f,c
  1932   001514                     u4534:
  1933   001514  2E70               	decfsz	??_gpio_pin_direction_initalize^0,f,c
  1934   001516  EF88  F00A         	goto	u4535
  1935   00151A  506F               	movf	gpio_pin_direction_initalize@_pin_config^0,w,c
  1936   00151C  6ED9               	movwf	fsr2l,c
  1937   00151E  6ADA               	clrf	fsr2h,c
  1938   001520  50DF               	movf	223,w,c
  1939   001522  0B07               	andlw	7
  1940   001524  0D02               	mullw	2
  1941   001526  50F3               	movf	243,w,c
  1942   001528  0F52               	addlw	low _tris_registers
  1943   00152A  6ED9               	movwf	fsr2l,c
  1944   00152C  6ADA               	clrf	fsr2h,c
  1945   00152E  CFDE F072          	movff	postinc2,??_gpio_pin_direction_initalize+2
  1946   001532  CFDD F073          	movff	postdec2,??_gpio_pin_direction_initalize+3
  1947   001536  C072  FFD9         	movff	??_gpio_pin_direction_initalize+2,fsr2l
  1948   00153A  C073  FFDA         	movff	??_gpio_pin_direction_initalize+3,fsr2h
  1949   00153E  5071               	movf	(??_gpio_pin_direction_initalize+1)^0,w,c
  1950   001540  12DF               	iorwf	indf2,f,c
  1951                           
  1952                           ;../MCAL_layer/GPIO/hal_gpio.c: 42:             break;
  1953   001542  EFC3  F00A         	goto	l6207
  1954   001546                     l6205:
  1955   001546  506F               	movf	gpio_pin_direction_initalize@_pin_config^0,w,c
  1956   001548  6ED9               	movwf	fsr2l,c
  1957   00154A  6ADA               	clrf	fsr2h,c
  1958   00154C  BCDF               	btfsc	indf2,6,c
  1959   00154E  EFAB  F00A         	goto	u4541
  1960   001552  EFAE  F00A         	goto	u4540
  1961   001556                     u4541:
  1962   001556  0E01               	movlw	1
  1963   001558  EFAF  F00A         	goto	u4550
  1964   00155C                     u4540:
  1965   00155C  0E00               	movlw	0
  1966   00155E                     u4550:
  1967   00155E  6E70               	movwf	??_gpio_pin_direction_initalize^0,c
  1968   001560  6A71               	clrf	(??_gpio_pin_direction_initalize+1)^0,c
  1969                           
  1970                           ; Switch on 2 bytes has been partitioned into a top level switch of size 1, and 1 sub-sw
      +                          itches
  1971                           ; Switch size 1, requested type "simple"
  1972                           ; Number of cases is 1, Range of values is 0 to 0
  1973                           ; switch strategies available:
  1974                           ; Name         Instructions Cycles
  1975                           ; simple_byte            4     3 (average)
  1976                           ;	Chosen strategy is simple_byte
  1977   001562  5071               	movf	(??_gpio_pin_direction_initalize+1)^0,w,c
  1978   001564  0A00               	xorlw	0	; case 0
  1979   001566  B4D8               	btfsc	status,2,c
  1980   001568  EFB8  F00A         	goto	l7437
  1981   00156C  EF4C  F00A         	goto	l6195
  1982   001570                     l7437:
  1983                           
  1984                           ; Switch size 1, requested type "simple"
  1985                           ; Number of cases is 2, Range of values is 0 to 1
  1986                           ; switch strategies available:
  1987                           ; Name         Instructions Cycles
  1988                           ; simple_byte            7     4 (average)
  1989                           ;	Chosen strategy is simple_byte
  1990   001570  5070               	movf	??_gpio_pin_direction_initalize^0,w,c
  1991   001572  0A00               	xorlw	0	; case 0
  1992   001574  B4D8               	btfsc	status,2,c
  1993   001576  EF50  F00A         	goto	l6197
  1994   00157A  0A01               	xorlw	1	; case 1
  1995   00157C  B4D8               	btfsc	status,2,c
  1996   00157E  EF7B  F00A         	goto	l6199
  1997   001582  EF4C  F00A         	goto	l6195
  1998   001586                     l6207:
  1999                           
  2000                           ;../MCAL_layer/GPIO/hal_gpio.c: 47:     return status;
  2001   001586  5075               	movf	gpio_pin_direction_initalize@status^0,w,c
  2002   001588  0012               	return		;funcret
  2003   00158A                     __end_of_gpio_pin_direction_initalize:
  2004                           	callstack 0
  2005                           
  2006 ;; *************** function _InterruptManagerHigh *****************
  2007 ;; Defined at:
  2008 ;;		line 51 in file "../MCAL_layer/interrupt/mcal_interrupt_manager.c"
  2009 ;; Parameters:    Size  Location     Type
  2010 ;;		None
  2011 ;; Auto vars:     Size  Location     Type
  2012 ;;		None
  2013 ;; Return value:  Size  Location     Type
  2014 ;;                  1    wreg      void 
  2015 ;; Registers used:
  2016 ;;		wreg, status,2, status,0, cstack
  2017 ;; Tracked objects:
  2018 ;;		On entry : 0/0
  2019 ;;		On exit  : 0/0
  2020 ;;		Unchanged: 0/0
  2021 ;; Data sizes:     COMRAM   BANK0   BANK1   BANK2   BANK3   BANK4   BANK5   BANK6   BANK7   BANK8   BANK9  BANK10  BANK1
      +1  BANK12  BANK13  BANK14  BANK15
  2022 ;;      Params:         0       0       0       0       0       0       0       0       0       0       0       0       
      +0       0       0       0       0
  2023 ;;      Locals:         0       0       0       0       0       0       0       0       0       0       0       0       
      +0       0       0       0       0
  2024 ;;      Temps:          0       0       0       0       0       0       0       0       0       0       0       0       
      +0       0       0       0       0
  2025 ;;      Totals:         0       0       0       0       0       0       0       0       0       0       0       0       
      +0       0       0       0       0
  2026 ;;Total ram usage:        0 bytes
  2027 ;; Hardware stack levels used: 1
  2028 ;; Hardware stack levels required when called: 1
  2029 ;; This function calls:
  2030 ;;		_CCP1_ISR
  2031 ;;		_CCP2_ISR
  2032 ;;		_EUSART_RX_ISR
  2033 ;;		_EUSART_TX_ISR
  2034 ;;		_EXTI0_ISR
  2035 ;;		_EXTI1_ISR
  2036 ;;		_EXTI2_ISR
  2037 ;;		_MSSP_I2C_BC_ISR
  2038 ;;		_MSSP_I2C_ISR
  2039 ;;		_RB4_ISR
  2040 ;;		_RB5_ISR
  2041 ;;		_RB6_ISR
  2042 ;;		_RB7_ISR
  2043 ;;		_TIMER0_ISR
  2044 ;;		_TIMER1_OVF_ISR
  2045 ;;		_TIMER3_OVF_ISR
  2046 ;; This function is called by:
  2047 ;;		Interrupt level 2
  2048 ;; This function uses a non-reentrant model
  2049 ;;
  2050                           
  2051                           	psect	intcode
  2052   000008                     __pintcode:
  2053                           	callstack 0
  2054   000008                     _InterruptManagerHigh:
  2055                           	callstack 26
  2056                           
  2057                           ;incstack = 0
  2058   000008  827C               	bsf	int$flags,1,c	;set compiler interrupt flag (level 2)
  2059   00000A  ED09  F008         	call	int_func,f	;refresh shadow registers
  2060                           
  2061                           	psect	intcode_body
  2062   001012                     __pintcode_body:
  2063                           	callstack 26
  2064   001012                     int_func:
  2065                           	callstack 26
  2066   001012  0006               	pop		; remove dummy address from shadow register refresh
  2067   001014                     
  2068                           ;../MCAL_layer/interrupt/mcal_interrupt_manager.c: 53:     if ((INTCONbits.INT0IE == 1U)
      +                           && (INTCONbits.INT0IF == 1U))
  2069   001014  A8F2               	btfss	242,4,c	;volatile
  2070   001016  EF0F  F008         	goto	i2u207_41
  2071   00101A  EF11  F008         	goto	i2u207_40
  2072   00101E                     i2u207_41:
  2073   00101E  EF1C  F008         	goto	i2l1149
  2074   001022                     i2u207_40:
  2075   001022  A2F2               	btfss	242,1,c	;volatile
  2076   001024  EF16  F008         	goto	i2u208_41
  2077   001028  EF18  F008         	goto	i2u208_40
  2078   00102C                     i2u208_41:
  2079   00102C  EF1C  F008         	goto	i2l1149
  2080   001030                     i2u208_40:
  2081   001030                     
  2082                           ;../MCAL_layer/interrupt/mcal_interrupt_manager.c: 54:     {;../MCAL_layer/interrupt/mca
      +                          l_interrupt_manager.c: 55:         EXTI0_ISR();
  2083   001030  ECB7  F00D         	call	_EXTI0_ISR	;wreg free
  2084                           
  2085                           ;../MCAL_layer/interrupt/mcal_interrupt_manager.c: 56:     }
  2086   001034  EF22  F00A         	goto	i2l1192
  2087   001038                     i2l1149:
  2088   001038  A6F0               	btfss	240,3,c	;volatile
  2089   00103A  EF21  F008         	goto	i2u209_41
  2090   00103E  EF23  F008         	goto	i2u209_40
  2091   001042                     i2u209_41:
  2092   001042  EF2E  F008         	goto	i2l1151
  2093   001046                     i2u209_40:
  2094   001046  A0F0               	btfss	240,0,c	;volatile
  2095   001048  EF28  F008         	goto	i2u210_41
  2096   00104C  EF2A  F008         	goto	i2u210_40
  2097   001050                     i2u210_41:
  2098   001050  EF2E  F008         	goto	i2l1151
  2099   001054                     i2u210_40:
  2100   001054                     
  2101                           ;../MCAL_layer/interrupt/mcal_interrupt_manager.c: 58:     {;../MCAL_layer/interrupt/mca
      +                          l_interrupt_manager.c: 59:         EXTI1_ISR();
  2102   001054  ECB5  F00D         	call	_EXTI1_ISR	;wreg free
  2103                           
  2104                           ;../MCAL_layer/interrupt/mcal_interrupt_manager.c: 60:     }
  2105   001058  EF22  F00A         	goto	i2l1192
  2106   00105C                     i2l1151:
  2107   00105C  A8F0               	btfss	240,4,c	;volatile
  2108   00105E  EF33  F008         	goto	i2u211_41
  2109   001062  EF35  F008         	goto	i2u211_40
  2110   001066                     i2u211_41:
  2111   001066  EF40  F008         	goto	i2l1153
  2112   00106A                     i2u211_40:
  2113   00106A  A2F0               	btfss	240,1,c	;volatile
  2114   00106C  EF3A  F008         	goto	i2u212_41
  2115   001070  EF3C  F008         	goto	i2u212_40
  2116   001074                     i2u212_41:
  2117   001074  EF40  F008         	goto	i2l1153
  2118   001078                     i2u212_40:
  2119   001078                     
  2120                           ;../MCAL_layer/interrupt/mcal_interrupt_manager.c: 62:     {;../MCAL_layer/interrupt/mca
      +                          l_interrupt_manager.c: 63:         EXTI2_ISR();
  2121   001078  ECB3  F00D         	call	_EXTI2_ISR	;wreg free
  2122                           
  2123                           ;../MCAL_layer/interrupt/mcal_interrupt_manager.c: 64:     }
  2124   00107C  EF22  F00A         	goto	i2l1192
  2125   001080                     i2l1153:
  2126   001080  A6F2               	btfss	242,3,c	;volatile
  2127   001082  EF45  F008         	goto	i2u213_41
  2128   001086  EF47  F008         	goto	i2u213_40
  2129   00108A                     i2u213_41:
  2130   00108A  EF64  F008         	goto	i2l1155
  2131   00108E                     i2u213_40:
  2132   00108E  A0F2               	btfss	242,0,c	;volatile
  2133   001090  EF4C  F008         	goto	i2u214_41
  2134   001094  EF4E  F008         	goto	i2u214_40
  2135   001098                     i2u214_41:
  2136   001098  EF64  F008         	goto	i2l1155
  2137   00109C                     i2u214_40:
  2138   00109C  A881               	btfss	129,4,c	;volatile
  2139   00109E  EF53  F008         	goto	i2u215_41
  2140   0010A2  EF55  F008         	goto	i2u215_40
  2141   0010A6                     i2u215_41:
  2142   0010A6  EF64  F008         	goto	i2l1155
  2143   0010AA                     i2u215_40:
  2144   0010AA  0465               	decf	_RB4_enter^0,w,c	;volatile
  2145   0010AC  A4D8               	btfss	status,2,c
  2146   0010AE  EF5B  F008         	goto	i2u216_41
  2147   0010B2  EF5D  F008         	goto	i2u216_40
  2148   0010B6                     i2u216_41:
  2149   0010B6  EF64  F008         	goto	i2l1155
  2150   0010BA                     i2u216_40:
  2151   0010BA                     
  2152                           ;../MCAL_layer/interrupt/mcal_interrupt_manager.c: 68:     {;../MCAL_layer/interrupt/mca
      +                          l_interrupt_manager.c: 69:         RB4_ISR(1);
  2153   0010BA  0E01               	movlw	1
  2154   0010BC  EC65  F00D         	call	_RB4_ISR
  2155   0010C0                     
  2156                           ;../MCAL_layer/interrupt/mcal_interrupt_manager.c: 70:         RB4_enter = 0;
  2157   0010C0  0E00               	movlw	0
  2158   0010C2  6E65               	movwf	_RB4_enter^0,c	;volatile
  2159                           
  2160                           ;../MCAL_layer/interrupt/mcal_interrupt_manager.c: 71:     }
  2161   0010C4  EF22  F00A         	goto	i2l1192
  2162   0010C8                     i2l1155:
  2163   0010C8  A6F2               	btfss	242,3,c	;volatile
  2164   0010CA  EF69  F008         	goto	i2u217_41
  2165   0010CE  EF6B  F008         	goto	i2u217_40
  2166   0010D2                     i2u217_41:
  2167   0010D2  EF88  F008         	goto	i2l1157
  2168   0010D6                     i2u217_40:
  2169   0010D6  A0F2               	btfss	242,0,c	;volatile
  2170   0010D8  EF70  F008         	goto	i2u218_41
  2171   0010DC  EF72  F008         	goto	i2u218_40
  2172   0010E0                     i2u218_41:
  2173   0010E0  EF88  F008         	goto	i2l1157
  2174   0010E4                     i2u218_40:
  2175   0010E4  B881               	btfsc	129,4,c	;volatile
  2176   0010E6  EF77  F008         	goto	i2u219_41
  2177   0010EA  EF79  F008         	goto	i2u219_40
  2178   0010EE                     i2u219_41:
  2179   0010EE  EF88  F008         	goto	i2l1157
  2180   0010F2                     i2u219_40:
  2181   0010F2  5065               	movf	_RB4_enter^0,w,c	;volatile
  2182   0010F4  A4D8               	btfss	status,2,c
  2183   0010F6  EF7F  F008         	goto	i2u220_41
  2184   0010FA  EF81  F008         	goto	i2u220_40
  2185   0010FE                     i2u220_41:
  2186   0010FE  EF88  F008         	goto	i2l1157
  2187   001102                     i2u220_40:
  2188   001102                     
  2189                           ;../MCAL_layer/interrupt/mcal_interrupt_manager.c: 73:     {;../MCAL_layer/interrupt/mca
      +                          l_interrupt_manager.c: 74:         RB4_ISR(0);
  2190   001102  0E00               	movlw	0
  2191   001104  EC65  F00D         	call	_RB4_ISR
  2192   001108                     
  2193                           ;../MCAL_layer/interrupt/mcal_interrupt_manager.c: 75:         RB4_enter = 1;
  2194   001108  0E01               	movlw	1
  2195   00110A  6E65               	movwf	_RB4_enter^0,c	;volatile
  2196                           
  2197                           ;../MCAL_layer/interrupt/mcal_interrupt_manager.c: 76:     }
  2198   00110C  EF22  F00A         	goto	i2l1192
  2199   001110                     i2l1157:
  2200   001110  A6F2               	btfss	242,3,c	;volatile
  2201   001112  EF8D  F008         	goto	i2u221_41
  2202   001116  EF8F  F008         	goto	i2u221_40
  2203   00111A                     i2u221_41:
  2204   00111A  EFAC  F008         	goto	i2l1159
  2205   00111E                     i2u221_40:
  2206   00111E  A0F2               	btfss	242,0,c	;volatile
  2207   001120  EF94  F008         	goto	i2u222_41
  2208   001124  EF96  F008         	goto	i2u222_40
  2209   001128                     i2u222_41:
  2210   001128  EFAC  F008         	goto	i2l1159
  2211   00112C                     i2u222_40:
  2212   00112C  AA81               	btfss	129,5,c	;volatile
  2213   00112E  EF9B  F008         	goto	i2u223_41
  2214   001132  EF9D  F008         	goto	i2u223_40
  2215   001136                     i2u223_41:
  2216   001136  EFAC  F008         	goto	i2l1159
  2217   00113A                     i2u223_40:
  2218   00113A  0464               	decf	_RB5_enter^0,w,c	;volatile
  2219   00113C  A4D8               	btfss	status,2,c
  2220   00113E  EFA3  F008         	goto	i2u224_41
  2221   001142  EFA5  F008         	goto	i2u224_40
  2222   001146                     i2u224_41:
  2223   001146  EFAC  F008         	goto	i2l1159
  2224   00114A                     i2u224_40:
  2225   00114A                     
  2226                           ;../MCAL_layer/interrupt/mcal_interrupt_manager.c: 79:     {;../MCAL_layer/interrupt/mca
      +                          l_interrupt_manager.c: 80:         RB5_ISR(1);
  2227   00114A  0E01               	movlw	1
  2228   00114C  EC49  F00D         	call	_RB5_ISR
  2229   001150                     
  2230                           ;../MCAL_layer/interrupt/mcal_interrupt_manager.c: 81:         RB5_enter = 0;
  2231   001150  0E00               	movlw	0
  2232   001152  6E64               	movwf	_RB5_enter^0,c	;volatile
  2233                           
  2234                           ;../MCAL_layer/interrupt/mcal_interrupt_manager.c: 82:     }
  2235   001154  EF22  F00A         	goto	i2l1192
  2236   001158                     i2l1159:
  2237   001158  A6F2               	btfss	242,3,c	;volatile
  2238   00115A  EFB1  F008         	goto	i2u225_41
  2239   00115E  EFB3  F008         	goto	i2u225_40
  2240   001162                     i2u225_41:
  2241   001162  EFD0  F008         	goto	i2l1161
  2242   001166                     i2u225_40:
  2243   001166  A0F2               	btfss	242,0,c	;volatile
  2244   001168  EFB8  F008         	goto	i2u226_41
  2245   00116C  EFBA  F008         	goto	i2u226_40
  2246   001170                     i2u226_41:
  2247   001170  EFD0  F008         	goto	i2l1161
  2248   001174                     i2u226_40:
  2249   001174  BA81               	btfsc	129,5,c	;volatile
  2250   001176  EFBF  F008         	goto	i2u227_41
  2251   00117A  EFC1  F008         	goto	i2u227_40
  2252   00117E                     i2u227_41:
  2253   00117E  EFD0  F008         	goto	i2l1161
  2254   001182                     i2u227_40:
  2255   001182  5064               	movf	_RB5_enter^0,w,c	;volatile
  2256   001184  A4D8               	btfss	status,2,c
  2257   001186  EFC7  F008         	goto	i2u228_41
  2258   00118A  EFC9  F008         	goto	i2u228_40
  2259   00118E                     i2u228_41:
  2260   00118E  EFD0  F008         	goto	i2l1161
  2261   001192                     i2u228_40:
  2262   001192                     
  2263                           ;../MCAL_layer/interrupt/mcal_interrupt_manager.c: 84:     {;../MCAL_layer/interrupt/mca
      +                          l_interrupt_manager.c: 85:         RB5_ISR(0);
  2264   001192  0E00               	movlw	0
  2265   001194  EC49  F00D         	call	_RB5_ISR
  2266   001198                     
  2267                           ;../MCAL_layer/interrupt/mcal_interrupt_manager.c: 86:         RB5_enter = 1;
  2268   001198  0E01               	movlw	1
  2269   00119A  6E64               	movwf	_RB5_enter^0,c	;volatile
  2270                           
  2271                           ;../MCAL_layer/interrupt/mcal_interrupt_manager.c: 87:     }
  2272   00119C  EF22  F00A         	goto	i2l1192
  2273   0011A0                     i2l1161:
  2274   0011A0  A6F2               	btfss	242,3,c	;volatile
  2275   0011A2  EFD5  F008         	goto	i2u229_41
  2276   0011A6  EFD7  F008         	goto	i2u229_40
  2277   0011AA                     i2u229_41:
  2278   0011AA  EFF4  F008         	goto	i2l1163
  2279   0011AE                     i2u229_40:
  2280   0011AE  A0F2               	btfss	242,0,c	;volatile
  2281   0011B0  EFDC  F008         	goto	i2u230_41
  2282   0011B4  EFDE  F008         	goto	i2u230_40
  2283   0011B8                     i2u230_41:
  2284   0011B8  EFF4  F008         	goto	i2l1163
  2285   0011BC                     i2u230_40:
  2286   0011BC  AC81               	btfss	129,6,c	;volatile
  2287   0011BE  EFE3  F008         	goto	i2u231_41
  2288   0011C2  EFE5  F008         	goto	i2u231_40
  2289   0011C6                     i2u231_41:
  2290   0011C6  EFF4  F008         	goto	i2l1163
  2291   0011CA                     i2u231_40:
  2292   0011CA  0463               	decf	_RB6_enter^0,w,c	;volatile
  2293   0011CC  A4D8               	btfss	status,2,c
  2294   0011CE  EFEB  F008         	goto	i2u232_41
  2295   0011D2  EFED  F008         	goto	i2u232_40
  2296   0011D6                     i2u232_41:
  2297   0011D6  EFF4  F008         	goto	i2l1163
  2298   0011DA                     i2u232_40:
  2299   0011DA                     
  2300                           ;../MCAL_layer/interrupt/mcal_interrupt_manager.c: 90:     {;../MCAL_layer/interrupt/mca
      +                          l_interrupt_manager.c: 91:         RB6_ISR(1);
  2301   0011DA  0E01               	movlw	1
  2302   0011DC  EC2D  F00D         	call	_RB6_ISR
  2303   0011E0                     
  2304                           ;../MCAL_layer/interrupt/mcal_interrupt_manager.c: 92:         RB6_enter = 0;
  2305   0011E0  0E00               	movlw	0
  2306   0011E2  6E63               	movwf	_RB6_enter^0,c	;volatile
  2307                           
  2308                           ;../MCAL_layer/interrupt/mcal_interrupt_manager.c: 93:     }
  2309   0011E4  EF22  F00A         	goto	i2l1192
  2310   0011E8                     i2l1163:
  2311   0011E8  A6F2               	btfss	242,3,c	;volatile
  2312   0011EA  EFF9  F008         	goto	i2u233_41
  2313   0011EE  EFFB  F008         	goto	i2u233_40
  2314   0011F2                     i2u233_41:
  2315   0011F2  EF18  F009         	goto	i2l1165
  2316   0011F6                     i2u233_40:
  2317   0011F6  A0F2               	btfss	242,0,c	;volatile
  2318   0011F8  EF00  F009         	goto	i2u234_41
  2319   0011FC  EF02  F009         	goto	i2u234_40
  2320   001200                     i2u234_41:
  2321   001200  EF18  F009         	goto	i2l1165
  2322   001204                     i2u234_40:
  2323   001204  BC81               	btfsc	129,6,c	;volatile
  2324   001206  EF07  F009         	goto	i2u235_41
  2325   00120A  EF09  F009         	goto	i2u235_40
  2326   00120E                     i2u235_41:
  2327   00120E  EF18  F009         	goto	i2l1165
  2328   001212                     i2u235_40:
  2329   001212  5063               	movf	_RB6_enter^0,w,c	;volatile
  2330   001214  A4D8               	btfss	status,2,c
  2331   001216  EF0F  F009         	goto	i2u236_41
  2332   00121A  EF11  F009         	goto	i2u236_40
  2333   00121E                     i2u236_41:
  2334   00121E  EF18  F009         	goto	i2l1165
  2335   001222                     i2u236_40:
  2336   001222                     
  2337                           ;../MCAL_layer/interrupt/mcal_interrupt_manager.c: 95:     {;../MCAL_layer/interrupt/mca
      +                          l_interrupt_manager.c: 96:         RB6_ISR(0);
  2338   001222  0E00               	movlw	0
  2339   001224  EC2D  F00D         	call	_RB6_ISR
  2340   001228                     
  2341                           ;../MCAL_layer/interrupt/mcal_interrupt_manager.c: 97:         RB6_enter = 1;
  2342   001228  0E01               	movlw	1
  2343   00122A  6E63               	movwf	_RB6_enter^0,c	;volatile
  2344                           
  2345                           ;../MCAL_layer/interrupt/mcal_interrupt_manager.c: 98:     }
  2346   00122C  EF22  F00A         	goto	i2l1192
  2347   001230                     i2l1165:
  2348   001230  A6F2               	btfss	242,3,c	;volatile
  2349   001232  EF1D  F009         	goto	i2u237_41
  2350   001236  EF1F  F009         	goto	i2u237_40
  2351   00123A                     i2u237_41:
  2352   00123A  EF3C  F009         	goto	i2l1167
  2353   00123E                     i2u237_40:
  2354   00123E  A0F2               	btfss	242,0,c	;volatile
  2355   001240  EF24  F009         	goto	i2u238_41
  2356   001244  EF26  F009         	goto	i2u238_40
  2357   001248                     i2u238_41:
  2358   001248  EF3C  F009         	goto	i2l1167
  2359   00124C                     i2u238_40:
  2360   00124C  AE81               	btfss	129,7,c	;volatile
  2361   00124E  EF2B  F009         	goto	i2u239_41
  2362   001252  EF2D  F009         	goto	i2u239_40
  2363   001256                     i2u239_41:
  2364   001256  EF3C  F009         	goto	i2l1167
  2365   00125A                     i2u239_40:
  2366   00125A  0462               	decf	_RB7_enter^0,w,c	;volatile
  2367   00125C  A4D8               	btfss	status,2,c
  2368   00125E  EF33  F009         	goto	i2u240_41
  2369   001262  EF35  F009         	goto	i2u240_40
  2370   001266                     i2u240_41:
  2371   001266  EF3C  F009         	goto	i2l1167
  2372   00126A                     i2u240_40:
  2373   00126A                     
  2374                           ;../MCAL_layer/interrupt/mcal_interrupt_manager.c: 101:     {;../MCAL_layer/interrupt/mc
      +                          al_interrupt_manager.c: 102:         RB7_ISR(1);
  2375   00126A  0E01               	movlw	1
  2376   00126C  EC11  F00D         	call	_RB7_ISR
  2377   001270                     
  2378                           ;../MCAL_layer/interrupt/mcal_interrupt_manager.c: 103:         RB7_enter = 0;
  2379   001270  0E00               	movlw	0
  2380   001272  6E62               	movwf	_RB7_enter^0,c	;volatile
  2381                           
  2382                           ;../MCAL_layer/interrupt/mcal_interrupt_manager.c: 104:     }
  2383   001274  EF22  F00A         	goto	i2l1192
  2384   001278                     i2l1167:
  2385   001278  A6F2               	btfss	242,3,c	;volatile
  2386   00127A  EF41  F009         	goto	i2u241_41
  2387   00127E  EF43  F009         	goto	i2u241_40
  2388   001282                     i2u241_41:
  2389   001282  EF60  F009         	goto	i2l1169
  2390   001286                     i2u241_40:
  2391   001286  A0F2               	btfss	242,0,c	;volatile
  2392   001288  EF48  F009         	goto	i2u242_41
  2393   00128C  EF4A  F009         	goto	i2u242_40
  2394   001290                     i2u242_41:
  2395   001290  EF60  F009         	goto	i2l1169
  2396   001294                     i2u242_40:
  2397   001294  BE81               	btfsc	129,7,c	;volatile
  2398   001296  EF4F  F009         	goto	i2u243_41
  2399   00129A  EF51  F009         	goto	i2u243_40
  2400   00129E                     i2u243_41:
  2401   00129E  EF60  F009         	goto	i2l1169
  2402   0012A2                     i2u243_40:
  2403   0012A2  5062               	movf	_RB7_enter^0,w,c	;volatile
  2404   0012A4  A4D8               	btfss	status,2,c
  2405   0012A6  EF57  F009         	goto	i2u244_41
  2406   0012AA  EF59  F009         	goto	i2u244_40
  2407   0012AE                     i2u244_41:
  2408   0012AE  EF60  F009         	goto	i2l1169
  2409   0012B2                     i2u244_40:
  2410   0012B2                     
  2411                           ;../MCAL_layer/interrupt/mcal_interrupt_manager.c: 106:     {;../MCAL_layer/interrupt/mc
      +                          al_interrupt_manager.c: 107:         RB7_ISR(0);
  2412   0012B2  0E00               	movlw	0
  2413   0012B4  EC11  F00D         	call	_RB7_ISR
  2414   0012B8                     
  2415                           ;../MCAL_layer/interrupt/mcal_interrupt_manager.c: 108:         RB7_enter = 1;
  2416   0012B8  0E01               	movlw	1
  2417   0012BA  6E62               	movwf	_RB7_enter^0,c	;volatile
  2418                           
  2419                           ;../MCAL_layer/interrupt/mcal_interrupt_manager.c: 109:     }
  2420   0012BC  EF22  F00A         	goto	i2l1192
  2421   0012C0                     i2l1169:
  2422   0012C0  AC9D               	btfss	157,6,c	;volatile
  2423   0012C2  EF65  F009         	goto	i2u245_41
  2424   0012C6  EF67  F009         	goto	i2u245_40
  2425   0012CA                     i2u245_41:
  2426   0012CA  EF70  F009         	goto	i2l1171
  2427   0012CE                     i2u245_40:
  2428   0012CE  AC9E               	btfss	158,6,c	;volatile
  2429   0012D0  EF6C  F009         	goto	i2u246_41
  2430   0012D4  EF6E  F009         	goto	i2u246_40
  2431   0012D8                     i2u246_41:
  2432   0012D8  EF70  F009         	goto	i2l1171
  2433   0012DC                     i2u246_40:
  2434   0012DC  EF22  F00A         	goto	i2l1192
  2435   0012E0                     i2l1171:
  2436   0012E0  AAF2               	btfss	242,5,c	;volatile
  2437   0012E2  EF75  F009         	goto	i2u247_41
  2438   0012E6  EF77  F009         	goto	i2u247_40
  2439   0012EA                     i2u247_41:
  2440   0012EA  EF82  F009         	goto	i2l1173
  2441   0012EE                     i2u247_40:
  2442   0012EE  A4F2               	btfss	242,2,c	;volatile
  2443   0012F0  EF7C  F009         	goto	i2u248_41
  2444   0012F4  EF7E  F009         	goto	i2u248_40
  2445   0012F8                     i2u248_41:
  2446   0012F8  EF82  F009         	goto	i2l1173
  2447   0012FC                     i2u248_40:
  2448   0012FC                     
  2449                           ;../MCAL_layer/interrupt/mcal_interrupt_manager.c: 119:     {;../MCAL_layer/interrupt/mc
      +                          al_interrupt_manager.c: 121:         TIMER0_ISR();
  2450   0012FC  ECA9  F00D         	call	_TIMER0_ISR	;wreg free
  2451                           
  2452                           ;../MCAL_layer/interrupt/mcal_interrupt_manager.c: 123:     }
  2453   001300  EF22  F00A         	goto	i2l1192
  2454   001304                     i2l1173:
  2455   001304  A09D               	btfss	157,0,c	;volatile
  2456   001306  EF87  F009         	goto	i2u249_41
  2457   00130A  EF89  F009         	goto	i2u249_40
  2458   00130E                     i2u249_41:
  2459   00130E  EF94  F009         	goto	i2l1175
  2460   001312                     i2u249_40:
  2461   001312  A09E               	btfss	158,0,c	;volatile
  2462   001314  EF8E  F009         	goto	i2u250_41
  2463   001318  EF90  F009         	goto	i2u250_40
  2464   00131C                     i2u250_41:
  2465   00131C  EF94  F009         	goto	i2l1175
  2466   001320                     i2u250_40:
  2467   001320                     
  2468                           ;../MCAL_layer/interrupt/mcal_interrupt_manager.c: 125:     {;../MCAL_layer/interrupt/mc
      +                          al_interrupt_manager.c: 127:         TIMER1_OVF_ISR();
  2469   001320  ECA3  F00D         	call	_TIMER1_OVF_ISR	;wreg free
  2470                           
  2471                           ;../MCAL_layer/interrupt/mcal_interrupt_manager.c: 129:     }
  2472   001324  EF22  F00A         	goto	i2l1192
  2473   001328                     i2l1175:
  2474   001328  A29D               	btfss	157,1,c	;volatile
  2475   00132A  EF99  F009         	goto	i2u251_41
  2476   00132E  EF9B  F009         	goto	i2u251_40
  2477   001332                     i2u251_41:
  2478   001332  EFA4  F009         	goto	i2l1177
  2479   001336                     i2u251_40:
  2480   001336  A29E               	btfss	158,1,c	;volatile
  2481   001338  EFA0  F009         	goto	i2u252_41
  2482   00133C  EFA2  F009         	goto	i2u252_40
  2483   001340                     i2u252_41:
  2484   001340  EFA4  F009         	goto	i2l1177
  2485   001344                     i2u252_40:
  2486   001344  EF22  F00A         	goto	i2l1192
  2487   001348                     i2l1177:
  2488   001348  A2A0               	btfss	160,1,c	;volatile
  2489   00134A  EFA9  F009         	goto	i2u253_41
  2490   00134E  EFAB  F009         	goto	i2u253_40
  2491   001352                     i2u253_41:
  2492   001352  EFB6  F009         	goto	i2l1179
  2493   001356                     i2u253_40:
  2494   001356  A2A1               	btfss	161,1,c	;volatile
  2495   001358  EFB0  F009         	goto	i2u254_41
  2496   00135C  EFB2  F009         	goto	i2u254_40
  2497   001360                     i2u254_41:
  2498   001360  EFB6  F009         	goto	i2l1179
  2499   001364                     i2u254_40:
  2500   001364                     
  2501                           ;../MCAL_layer/interrupt/mcal_interrupt_manager.c: 137:     {;../MCAL_layer/interrupt/mc
      +                          al_interrupt_manager.c: 139:         TIMER3_OVF_ISR();
  2502   001364  EC9D  F00D         	call	_TIMER3_OVF_ISR	;wreg free
  2503                           
  2504                           ;../MCAL_layer/interrupt/mcal_interrupt_manager.c: 141:     }
  2505   001368  EF22  F00A         	goto	i2l1192
  2506   00136C                     i2l1179:
  2507   00136C  A49D               	btfss	157,2,c	;volatile
  2508   00136E  EFBB  F009         	goto	i2u255_41
  2509   001372  EFBD  F009         	goto	i2u255_40
  2510   001376                     i2u255_41:
  2511   001376  EFC8  F009         	goto	i2l1181
  2512   00137A                     i2u255_40:
  2513   00137A  A49E               	btfss	158,2,c	;volatile
  2514   00137C  EFC2  F009         	goto	i2u256_41
  2515   001380  EFC4  F009         	goto	i2u256_40
  2516   001384                     i2u256_41:
  2517   001384  EFC8  F009         	goto	i2l1181
  2518   001388                     i2u256_40:
  2519   001388                     
  2520                           ;../MCAL_layer/interrupt/mcal_interrupt_manager.c: 144:     {;../MCAL_layer/interrupt/mc
      +                          al_interrupt_manager.c: 146:         CCP1_ISR();
  2521   001388  ECBB  F00D         	call	_CCP1_ISR	;wreg free
  2522                           
  2523                           ;../MCAL_layer/interrupt/mcal_interrupt_manager.c: 148:     }
  2524   00138C  EF22  F00A         	goto	i2l1192
  2525   001390                     i2l1181:
  2526   001390  A0A0               	btfss	160,0,c	;volatile
  2527   001392  EFCD  F009         	goto	i2u257_41
  2528   001396  EFCF  F009         	goto	i2u257_40
  2529   00139A                     i2u257_41:
  2530   00139A  EFDA  F009         	goto	i2l1183
  2531   00139E                     i2u257_40:
  2532   00139E  A0A1               	btfss	161,0,c	;volatile
  2533   0013A0  EFD4  F009         	goto	i2u258_41
  2534   0013A4  EFD6  F009         	goto	i2u258_40
  2535   0013A8                     i2u258_41:
  2536   0013A8  EFDA  F009         	goto	i2l1183
  2537   0013AC                     i2u258_40:
  2538   0013AC                     
  2539                           ;../MCAL_layer/interrupt/mcal_interrupt_manager.c: 151:     {;../MCAL_layer/interrupt/mc
      +                          al_interrupt_manager.c: 153:         CCP2_ISR();
  2540   0013AC  ECB9  F00D         	call	_CCP2_ISR	;wreg free
  2541                           
  2542                           ;../MCAL_layer/interrupt/mcal_interrupt_manager.c: 155:     }
  2543   0013B0  EF22  F00A         	goto	i2l1192
  2544   0013B4                     i2l1183:
  2545   0013B4  A89D               	btfss	157,4,c	;volatile
  2546   0013B6  EFDF  F009         	goto	i2u259_41
  2547   0013BA  EFE1  F009         	goto	i2u259_40
  2548   0013BE                     i2u259_41:
  2549   0013BE  EFEC  F009         	goto	i2l1185
  2550   0013C2                     i2u259_40:
  2551   0013C2  A89E               	btfss	158,4,c	;volatile
  2552   0013C4  EFE6  F009         	goto	i2u260_41
  2553   0013C8  EFE8  F009         	goto	i2u260_40
  2554   0013CC                     i2u260_41:
  2555   0013CC  EFEC  F009         	goto	i2l1185
  2556   0013D0                     i2u260_40:
  2557   0013D0                     
  2558                           ;../MCAL_layer/interrupt/mcal_interrupt_manager.c: 157:     {;../MCAL_layer/interrupt/mc
      +                          al_interrupt_manager.c: 159:         EUSART_TX_ISR();
  2559   0013D0  ECBD  F00D         	call	_EUSART_TX_ISR	;wreg free
  2560                           
  2561                           ;../MCAL_layer/interrupt/mcal_interrupt_manager.c: 161:     }
  2562   0013D4  EF22  F00A         	goto	i2l1192
  2563   0013D8                     i2l1185:
  2564   0013D8  AA9D               	btfss	157,5,c	;volatile
  2565   0013DA  EFF1  F009         	goto	i2u261_41
  2566   0013DE  EFF3  F009         	goto	i2u261_40
  2567   0013E2                     i2u261_41:
  2568   0013E2  EFFE  F009         	goto	i2l1187
  2569   0013E6                     i2u261_40:
  2570   0013E6  AA9E               	btfss	158,5,c	;volatile
  2571   0013E8  EFF8  F009         	goto	i2u262_41
  2572   0013EC  EFFA  F009         	goto	i2u262_40
  2573   0013F0                     i2u262_41:
  2574   0013F0  EFFE  F009         	goto	i2l1187
  2575   0013F4                     i2u262_40:
  2576   0013F4                     
  2577                           ;../MCAL_layer/interrupt/mcal_interrupt_manager.c: 163:     {;../MCAL_layer/interrupt/mc
      +                          al_interrupt_manager.c: 165:         EUSART_RX_ISR();
  2578   0013F4  ECBE  F00D         	call	_EUSART_RX_ISR	;wreg free
  2579                           
  2580                           ;../MCAL_layer/interrupt/mcal_interrupt_manager.c: 167:     }
  2581   0013F8  EF22  F00A         	goto	i2l1192
  2582   0013FC                     i2l1187:
  2583   0013FC  A69D               	btfss	157,3,c	;volatile
  2584   0013FE  EF03  F00A         	goto	i2u263_41
  2585   001402  EF05  F00A         	goto	i2u263_40
  2586   001406                     i2u263_41:
  2587   001406  EF10  F00A         	goto	i2l1189
  2588   00140A                     i2u263_40:
  2589   00140A  A69E               	btfss	158,3,c	;volatile
  2590   00140C  EF0A  F00A         	goto	i2u264_41
  2591   001410  EF0C  F00A         	goto	i2u264_40
  2592   001414                     i2u264_41:
  2593   001414  EF10  F00A         	goto	i2l1189
  2594   001418                     i2u264_40:
  2595   001418                     
  2596                           ;../MCAL_layer/interrupt/mcal_interrupt_manager.c: 169:     {;../MCAL_layer/interrupt/mc
      +                          al_interrupt_manager.c: 171:         MSSP_I2C_ISR();
  2597   001418  ECAF  F00D         	call	_MSSP_I2C_ISR	;wreg free
  2598                           
  2599                           ;../MCAL_layer/interrupt/mcal_interrupt_manager.c: 173:     }
  2600   00141C  EF22  F00A         	goto	i2l1192
  2601   001420                     i2l1189:
  2602   001420  A6A0               	btfss	160,3,c	;volatile
  2603   001422  EF15  F00A         	goto	i2u265_41
  2604   001426  EF17  F00A         	goto	i2u265_40
  2605   00142A                     i2u265_41:
  2606   00142A  EF22  F00A         	goto	i2l1186
  2607   00142E                     i2u265_40:
  2608   00142E  A6A1               	btfss	161,3,c	;volatile
  2609   001430  EF1C  F00A         	goto	i2u266_41
  2610   001434  EF1E  F00A         	goto	i2u266_40
  2611   001438                     i2u266_41:
  2612   001438  EF22  F00A         	goto	i2l1186
  2613   00143C                     i2u266_40:
  2614   00143C                     
  2615                           ;../MCAL_layer/interrupt/mcal_interrupt_manager.c: 175:     {;../MCAL_layer/interrupt/mc
      +                          al_interrupt_manager.c: 177:         MSSP_I2C_BC_ISR();
  2616   00143C  ECB1  F00D         	call	_MSSP_I2C_BC_ISR	;wreg free
  2617   001440  EF22  F00A         	goto	i2l1192
  2618   001444                     i2l1186:
  2619   001444                     i2l1192:
  2620   001444  927C               	bcf	int$flags,1,c	;clear compiler interrupt flag (level 2)
  2621   001446  0011               	retfie		f
  2622   001448                     __end_of_InterruptManagerHigh:
  2623                           	callstack 0
  2624                           
  2625 ;; *************** function _TIMER3_OVF_ISR *****************
  2626 ;; Defined at:
  2627 ;;		line 77 in file "../MCAL_layer/TIMER3/hal_timer3.c"
  2628 ;; Parameters:    Size  Location     Type
  2629 ;;		None
  2630 ;; Auto vars:     Size  Location     Type
  2631 ;;		None
  2632 ;; Return value:  Size  Location     Type
  2633 ;;                  1    wreg      void 
  2634 ;; Registers used:
  2635 ;;		wreg, status,2
  2636 ;; Tracked objects:
  2637 ;;		On entry : 0/0
  2638 ;;		On exit  : 0/0
  2639 ;;		Unchanged: 0/0
  2640 ;; Data sizes:     COMRAM   BANK0   BANK1   BANK2   BANK3   BANK4   BANK5   BANK6   BANK7   BANK8   BANK9  BANK10  BANK1
      +1  BANK12  BANK13  BANK14  BANK15
  2641 ;;      Params:         0       0       0       0       0       0       0       0       0       0       0       0       
      +0       0       0       0       0
  2642 ;;      Locals:         0       0       0       0       0       0       0       0       0       0       0       0       
      +0       0       0       0       0
  2643 ;;      Temps:          0       0       0       0       0       0       0       0       0       0       0       0       
      +0       0       0       0       0
  2644 ;;      Totals:         0       0       0       0       0       0       0       0       0       0       0       0       
      +0       0       0       0       0
  2645 ;;Total ram usage:        0 bytes
  2646 ;; Hardware stack levels used: 1
  2647 ;; This function calls:
  2648 ;;		Nothing
  2649 ;; This function is called by:
  2650 ;;		_InterruptManagerHigh
  2651 ;; This function uses a non-reentrant model
  2652 ;;
  2653                           
  2654                           	psect	text12
  2655   001B3A                     __ptext12:
  2656                           	callstack 0
  2657   001B3A                     _TIMER3_OVF_ISR:
  2658                           	callstack 26
  2659   001B3A                     
  2660                           ;../MCAL_layer/TIMER3/hal_timer3.c: 80:     (PIR2bits.TMR3IF = 0);
  2661   001B3A  92A1               	bcf	161,1,c	;volatile
  2662   001B3C                     
  2663                           ;../MCAL_layer/TIMER3/hal_timer3.c: 83:     TMR3H = Timer3Preload >> 8;
  2664   001B3C  500A               	movf	(_Timer3Preload+1)^0,w,c
  2665   001B3E  6EB3               	movwf	179,c	;volatile
  2666   001B40                     
  2667                           ;../MCAL_layer/TIMER3/hal_timer3.c: 84:     TMR3L = (uint8)(Timer3Preload);
  2668   001B40  C009  FFB2         	movff	_Timer3Preload,4018	;volatile
  2669   001B44  0012               	return		;funcret
  2670   001B46                     __end_of_TIMER3_OVF_ISR:
  2671                           	callstack 0
  2672                           
  2673 ;; *************** function _TIMER1_OVF_ISR *****************
  2674 ;; Defined at:
  2675 ;;		line 77 in file "../MCAL_layer/TIMER1/hal_timer1.c"
  2676 ;; Parameters:    Size  Location     Type
  2677 ;;		None
  2678 ;; Auto vars:     Size  Location     Type
  2679 ;;		None
  2680 ;; Return value:  Size  Location     Type
  2681 ;;                  1    wreg      void 
  2682 ;; Registers used:
  2683 ;;		wreg, status,2
  2684 ;; Tracked objects:
  2685 ;;		On entry : 0/0
  2686 ;;		On exit  : 0/0
  2687 ;;		Unchanged: 0/0
  2688 ;; Data sizes:     COMRAM   BANK0   BANK1   BANK2   BANK3   BANK4   BANK5   BANK6   BANK7   BANK8   BANK9  BANK10  BANK1
      +1  BANK12  BANK13  BANK14  BANK15
  2689 ;;      Params:         0       0       0       0       0       0       0       0       0       0       0       0       
      +0       0       0       0       0
  2690 ;;      Locals:         0       0       0       0       0       0       0       0       0       0       0       0       
      +0       0       0       0       0
  2691 ;;      Temps:          0       0       0       0       0       0       0       0       0       0       0       0       
      +0       0       0       0       0
  2692 ;;      Totals:         0       0       0       0       0       0       0       0       0       0       0       0       
      +0       0       0       0       0
  2693 ;;Total ram usage:        0 bytes
  2694 ;; Hardware stack levels used: 1
  2695 ;; This function calls:
  2696 ;;		Nothing
  2697 ;; This function is called by:
  2698 ;;		_InterruptManagerHigh
  2699 ;; This function uses a non-reentrant model
  2700 ;;
  2701                           
  2702                           	psect	text13
  2703   001B46                     __ptext13:
  2704                           	callstack 0
  2705   001B46                     _TIMER1_OVF_ISR:
  2706                           	callstack 26
  2707   001B46                     
  2708                           ;../MCAL_layer/TIMER1/hal_timer1.c: 80:     (PIR1bits.TMR1IF = 0);
  2709   001B46  909E               	bcf	158,0,c	;volatile
  2710   001B48                     
  2711                           ;../MCAL_layer/TIMER1/hal_timer1.c: 83:     TMR1H = Timer1Preload >> 8;
  2712   001B48  5010               	movf	(_Timer1Preload+1)^0,w,c
  2713   001B4A  6ECF               	movwf	207,c	;volatile
  2714   001B4C                     
  2715                           ;../MCAL_layer/TIMER1/hal_timer1.c: 84:     TMR1L = (uint8)(Timer1Preload);
  2716   001B4C  C00F  FFCE         	movff	_Timer1Preload,4046	;volatile
  2717   001B50  0012               	return		;funcret
  2718   001B52                     __end_of_TIMER1_OVF_ISR:
  2719                           	callstack 0
  2720                           
  2721 ;; *************** function _TIMER0_ISR *****************
  2722 ;; Defined at:
  2723 ;;		line 93 in file "../MCAL_layer/TIMER0/hal_timer0.c"
  2724 ;; Parameters:    Size  Location     Type
  2725 ;;		None
  2726 ;; Auto vars:     Size  Location     Type
  2727 ;;		None
  2728 ;; Return value:  Size  Location     Type
  2729 ;;                  1    wreg      void 
  2730 ;; Registers used:
  2731 ;;		wreg, status,2
  2732 ;; Tracked objects:
  2733 ;;		On entry : 0/0
  2734 ;;		On exit  : 0/0
  2735 ;;		Unchanged: 0/0
  2736 ;; Data sizes:     COMRAM   BANK0   BANK1   BANK2   BANK3   BANK4   BANK5   BANK6   BANK7   BANK8   BANK9  BANK10  BANK1
      +1  BANK12  BANK13  BANK14  BANK15
  2737 ;;      Params:         0       0       0       0       0       0       0       0       0       0       0       0       
      +0       0       0       0       0
  2738 ;;      Locals:         0       0       0       0       0       0       0       0       0       0       0       0       
      +0       0       0       0       0
  2739 ;;      Temps:          0       0       0       0       0       0       0       0       0       0       0       0       
      +0       0       0       0       0
  2740 ;;      Totals:         0       0       0       0       0       0       0       0       0       0       0       0       
      +0       0       0       0       0
  2741 ;;Total ram usage:        0 bytes
  2742 ;; Hardware stack levels used: 1
  2743 ;; This function calls:
  2744 ;;		Nothing
  2745 ;; This function is called by:
  2746 ;;		_InterruptManagerHigh
  2747 ;; This function uses a non-reentrant model
  2748 ;;
  2749                           
  2750                           	psect	text14
  2751   001B52                     __ptext14:
  2752                           	callstack 0
  2753   001B52                     _TIMER0_ISR:
  2754                           	callstack 26
  2755   001B52                     
  2756                           ;../MCAL_layer/TIMER0/hal_timer0.c: 96:     (INTCONbits.T0IF = 0);
  2757   001B52  94F2               	bcf	242,2,c	;volatile
  2758   001B54                     
  2759                           ;../MCAL_layer/TIMER0/hal_timer0.c: 99:     TMR0H = preloadValue >> 8;
  2760   001B54  5014               	movf	(_preloadValue+1)^0,w,c	;volatile
  2761   001B56  6ED7               	movwf	215,c	;volatile
  2762   001B58                     
  2763                           ;../MCAL_layer/TIMER0/hal_timer0.c: 100:     TMR0L = (uint8)(preloadValue);
  2764   001B58  C013  FFD6         	movff	_preloadValue,4054	;volatile
  2765   001B5C  0012               	return		;funcret
  2766   001B5E                     __end_of_TIMER0_ISR:
  2767                           	callstack 0
  2768                           
  2769 ;; *************** function _RB7_ISR *****************
  2770 ;; Defined at:
  2771 ;;		line 602 in file "../MCAL_layer/interrupt/mcal_external_interrupt.c"
  2772 ;; Parameters:    Size  Location     Type
  2773 ;;  RB7_Int         1    wreg     unsigned char 
  2774 ;; Auto vars:     Size  Location     Type
  2775 ;;  RB7_Int         1    2[COMRAM] unsigned char 
  2776 ;; Return value:  Size  Location     Type
  2777 ;;                  1    wreg      void 
  2778 ;; Registers used:
  2779 ;;		wreg, status,2, status,0
  2780 ;; Tracked objects:
  2781 ;;		On entry : 0/0
  2782 ;;		On exit  : 0/0
  2783 ;;		Unchanged: 0/0
  2784 ;; Data sizes:     COMRAM   BANK0   BANK1   BANK2   BANK3   BANK4   BANK5   BANK6   BANK7   BANK8   BANK9  BANK10  BANK1
      +1  BANK12  BANK13  BANK14  BANK15
  2785 ;;      Params:         0       0       0       0       0       0       0       0       0       0       0       0       
      +0       0       0       0       0
  2786 ;;      Locals:         1       0       0       0       0       0       0       0       0       0       0       0       
      +0       0       0       0       0
  2787 ;;      Temps:          2       0       0       0       0       0       0       0       0       0       0       0       
      +0       0       0       0       0
  2788 ;;      Totals:         3       0       0       0       0       0       0       0       0       0       0       0       
      +0       0       0       0       0
  2789 ;;Total ram usage:        3 bytes
  2790 ;; Hardware stack levels used: 1
  2791 ;; This function calls:
  2792 ;;		Nothing
  2793 ;; This function is called by:
  2794 ;;		_InterruptManagerHigh
  2795 ;; This function uses a non-reentrant model
  2796 ;;
  2797                           
  2798                           	psect	text15
  2799   001A22                     __ptext15:
  2800                           	callstack 0
  2801   001A22                     _RB7_ISR:
  2802                           	callstack 26
  2803                           
  2804                           ;incstack = 0
  2805                           ;RB7_ISR@RB7_Int stored from wreg
  2806   001A22  6E6E               	movwf	RB7_ISR@RB7_Int^0,c
  2807   001A24                     
  2808                           ;../MCAL_layer/interrupt/mcal_external_interrupt.c: 602: void RB7_ISR(uint8 RB7_Int);../
      +                          MCAL_layer/interrupt/mcal_external_interrupt.c: 603: {;../MCAL_layer/interrupt/mcal_exte
      +                          rnal_interrupt.c: 605:     (INTCONbits.RBIF=0);
  2809   001A24  90F2               	bcf	242,0,c	;volatile
  2810                           
  2811                           ;../MCAL_layer/interrupt/mcal_external_interrupt.c: 606:     switch(RB7_Int)
  2812   001A26  EF17  F00D         	goto	i2l2829
  2813   001A2A                     i2l1086:
  2814                           
  2815                           ;../MCAL_layer/interrupt/mcal_external_interrupt.c: 613:         break;
  2816   001A2A  EF2C  F00D         	goto	i2l1090
  2817   001A2E                     i2l2829:
  2818   001A2E  506E               	movf	RB7_ISR@RB7_Int^0,w,c
  2819   001A30  6E6C               	movwf	??_RB7_ISR^0,c
  2820   001A32  6A6D               	clrf	(??_RB7_ISR+1)^0,c
  2821                           
  2822                           ; Switch on 2 bytes has been partitioned into a top level switch of size 1, and 1 sub-sw
      +                          itches
  2823                           ; Switch size 1, requested type "simple"
  2824                           ; Number of cases is 1, Range of values is 0 to 0
  2825                           ; switch strategies available:
  2826                           ; Name         Instructions Cycles
  2827                           ; simple_byte            4     3 (average)
  2828                           ;	Chosen strategy is simple_byte
  2829   001A34  506D               	movf	(??_RB7_ISR+1)^0,w,c
  2830   001A36  0A00               	xorlw	0	; case 0
  2831   001A38  B4D8               	btfsc	status,2,c
  2832   001A3A  EF21  F00D         	goto	i2l7439
  2833   001A3E  EF2C  F00D         	goto	i2l1090
  2834   001A42                     i2l7439:
  2835                           
  2836                           ; Switch size 1, requested type "simple"
  2837                           ; Number of cases is 2, Range of values is 0 to 1
  2838                           ; switch strategies available:
  2839                           ; Name         Instructions Cycles
  2840                           ; simple_byte            7     4 (average)
  2841                           ;	Chosen strategy is simple_byte
  2842   001A42  506C               	movf	??_RB7_ISR^0,w,c
  2843   001A44  0A00               	xorlw	0	; case 0
  2844   001A46  B4D8               	btfsc	status,2,c
  2845   001A48  EF15  F00D         	goto	i2l1086
  2846   001A4C  0A01               	xorlw	1	; case 1
  2847   001A4E  B4D8               	btfsc	status,2,c
  2848   001A50  EF2C  F00D         	goto	i2l1090
  2849   001A54  EF2C  F00D         	goto	i2l1090
  2850   001A58                     i2l1090:
  2851   001A58  0012               	return		;funcret
  2852   001A5A                     __end_of_RB7_ISR:
  2853                           	callstack 0
  2854                           
  2855 ;; *************** function _RB6_ISR *****************
  2856 ;; Defined at:
  2857 ;;		line 580 in file "../MCAL_layer/interrupt/mcal_external_interrupt.c"
  2858 ;; Parameters:    Size  Location     Type
  2859 ;;  RB6_Int         1    wreg     unsigned char 
  2860 ;; Auto vars:     Size  Location     Type
  2861 ;;  RB6_Int         1    2[COMRAM] unsigned char 
  2862 ;; Return value:  Size  Location     Type
  2863 ;;                  1    wreg      void 
  2864 ;; Registers used:
  2865 ;;		wreg, status,2, status,0
  2866 ;; Tracked objects:
  2867 ;;		On entry : 0/0
  2868 ;;		On exit  : 0/0
  2869 ;;		Unchanged: 0/0
  2870 ;; Data sizes:     COMRAM   BANK0   BANK1   BANK2   BANK3   BANK4   BANK5   BANK6   BANK7   BANK8   BANK9  BANK10  BANK1
      +1  BANK12  BANK13  BANK14  BANK15
  2871 ;;      Params:         0       0       0       0       0       0       0       0       0       0       0       0       
      +0       0       0       0       0
  2872 ;;      Locals:         1       0       0       0       0       0       0       0       0       0       0       0       
      +0       0       0       0       0
  2873 ;;      Temps:          2       0       0       0       0       0       0       0       0       0       0       0       
      +0       0       0       0       0
  2874 ;;      Totals:         3       0       0       0       0       0       0       0       0       0       0       0       
      +0       0       0       0       0
  2875 ;;Total ram usage:        3 bytes
  2876 ;; Hardware stack levels used: 1
  2877 ;; This function calls:
  2878 ;;		Nothing
  2879 ;; This function is called by:
  2880 ;;		_InterruptManagerHigh
  2881 ;; This function uses a non-reentrant model
  2882 ;;
  2883                           
  2884                           	psect	text16
  2885   001A5A                     __ptext16:
  2886                           	callstack 0
  2887   001A5A                     _RB6_ISR:
  2888                           	callstack 26
  2889                           
  2890                           ;incstack = 0
  2891                           ;RB6_ISR@RB6_Int stored from wreg
  2892   001A5A  6E6E               	movwf	RB6_ISR@RB6_Int^0,c
  2893   001A5C                     
  2894                           ;../MCAL_layer/interrupt/mcal_external_interrupt.c: 580: void RB6_ISR(uint8 RB6_Int);../
      +                          MCAL_layer/interrupt/mcal_external_interrupt.c: 581: {;../MCAL_layer/interrupt/mcal_exte
      +                          rnal_interrupt.c: 583:     (INTCONbits.RBIF=0);
  2895   001A5C  90F2               	bcf	242,0,c	;volatile
  2896                           
  2897                           ;../MCAL_layer/interrupt/mcal_external_interrupt.c: 584:     switch(RB6_Int)
  2898   001A5E  EF33  F00D         	goto	i2l2815
  2899   001A62                     i2l1077:
  2900                           
  2901                           ;../MCAL_layer/interrupt/mcal_external_interrupt.c: 591:         break;
  2902   001A62  EF48  F00D         	goto	i2l1081
  2903   001A66                     i2l2815:
  2904   001A66  506E               	movf	RB6_ISR@RB6_Int^0,w,c
  2905   001A68  6E6C               	movwf	??_RB6_ISR^0,c
  2906   001A6A  6A6D               	clrf	(??_RB6_ISR+1)^0,c
  2907                           
  2908                           ; Switch on 2 bytes has been partitioned into a top level switch of size 1, and 1 sub-sw
      +                          itches
  2909                           ; Switch size 1, requested type "simple"
  2910                           ; Number of cases is 1, Range of values is 0 to 0
  2911                           ; switch strategies available:
  2912                           ; Name         Instructions Cycles
  2913                           ; simple_byte            4     3 (average)
  2914                           ;	Chosen strategy is simple_byte
  2915   001A6C  506D               	movf	(??_RB6_ISR+1)^0,w,c
  2916   001A6E  0A00               	xorlw	0	; case 0
  2917   001A70  B4D8               	btfsc	status,2,c
  2918   001A72  EF3D  F00D         	goto	i2l7441
  2919   001A76  EF48  F00D         	goto	i2l1081
  2920   001A7A                     i2l7441:
  2921                           
  2922                           ; Switch size 1, requested type "simple"
  2923                           ; Number of cases is 2, Range of values is 0 to 1
  2924                           ; switch strategies available:
  2925                           ; Name         Instructions Cycles
  2926                           ; simple_byte            7     4 (average)
  2927                           ;	Chosen strategy is simple_byte
  2928   001A7A  506C               	movf	??_RB6_ISR^0,w,c
  2929   001A7C  0A00               	xorlw	0	; case 0
  2930   001A7E  B4D8               	btfsc	status,2,c
  2931   001A80  EF31  F00D         	goto	i2l1077
  2932   001A84  0A01               	xorlw	1	; case 1
  2933   001A86  B4D8               	btfsc	status,2,c
  2934   001A88  EF48  F00D         	goto	i2l1081
  2935   001A8C  EF48  F00D         	goto	i2l1081
  2936   001A90                     i2l1081:
  2937   001A90  0012               	return		;funcret
  2938   001A92                     __end_of_RB6_ISR:
  2939                           	callstack 0
  2940                           
  2941 ;; *************** function _RB5_ISR *****************
  2942 ;; Defined at:
  2943 ;;		line 557 in file "../MCAL_layer/interrupt/mcal_external_interrupt.c"
  2944 ;; Parameters:    Size  Location     Type
  2945 ;;  RB5_Int         1    wreg     unsigned char 
  2946 ;; Auto vars:     Size  Location     Type
  2947 ;;  RB5_Int         1    2[COMRAM] unsigned char 
  2948 ;; Return value:  Size  Location     Type
  2949 ;;                  1    wreg      void 
  2950 ;; Registers used:
  2951 ;;		wreg, status,2, status,0
  2952 ;; Tracked objects:
  2953 ;;		On entry : 0/0
  2954 ;;		On exit  : 0/0
  2955 ;;		Unchanged: 0/0
  2956 ;; Data sizes:     COMRAM   BANK0   BANK1   BANK2   BANK3   BANK4   BANK5   BANK6   BANK7   BANK8   BANK9  BANK10  BANK1
      +1  BANK12  BANK13  BANK14  BANK15
  2957 ;;      Params:         0       0       0       0       0       0       0       0       0       0       0       0       
      +0       0       0       0       0
  2958 ;;      Locals:         1       0       0       0       0       0       0       0       0       0       0       0       
      +0       0       0       0       0
  2959 ;;      Temps:          2       0       0       0       0       0       0       0       0       0       0       0       
      +0       0       0       0       0
  2960 ;;      Totals:         3       0       0       0       0       0       0       0       0       0       0       0       
      +0       0       0       0       0
  2961 ;;Total ram usage:        3 bytes
  2962 ;; Hardware stack levels used: 1
  2963 ;; This function calls:
  2964 ;;		Nothing
  2965 ;; This function is called by:
  2966 ;;		_InterruptManagerHigh
  2967 ;; This function uses a non-reentrant model
  2968 ;;
  2969                           
  2970                           	psect	text17
  2971   001A92                     __ptext17:
  2972                           	callstack 0
  2973   001A92                     _RB5_ISR:
  2974                           	callstack 26
  2975                           
  2976                           ;incstack = 0
  2977                           ;RB5_ISR@RB5_Int stored from wreg
  2978   001A92  6E6E               	movwf	RB5_ISR@RB5_Int^0,c
  2979   001A94                     
  2980                           ;../MCAL_layer/interrupt/mcal_external_interrupt.c: 557: void RB5_ISR(uint8 RB5_Int);../
      +                          MCAL_layer/interrupt/mcal_external_interrupt.c: 558: {;../MCAL_layer/interrupt/mcal_exte
      +                          rnal_interrupt.c: 560:     (INTCONbits.RBIF=0);
  2981   001A94  90F2               	bcf	242,0,c	;volatile
  2982                           
  2983                           ;../MCAL_layer/interrupt/mcal_external_interrupt.c: 561:     switch(RB5_Int)
  2984   001A96  EF4F  F00D         	goto	i2l2801
  2985   001A9A                     i2l1068:
  2986                           
  2987                           ;../MCAL_layer/interrupt/mcal_external_interrupt.c: 568:         break;
  2988   001A9A  EF64  F00D         	goto	i2l1072
  2989   001A9E                     i2l2801:
  2990   001A9E  506E               	movf	RB5_ISR@RB5_Int^0,w,c
  2991   001AA0  6E6C               	movwf	??_RB5_ISR^0,c
  2992   001AA2  6A6D               	clrf	(??_RB5_ISR+1)^0,c
  2993                           
  2994                           ; Switch on 2 bytes has been partitioned into a top level switch of size 1, and 1 sub-sw
      +                          itches
  2995                           ; Switch size 1, requested type "simple"
  2996                           ; Number of cases is 1, Range of values is 0 to 0
  2997                           ; switch strategies available:
  2998                           ; Name         Instructions Cycles
  2999                           ; simple_byte            4     3 (average)
  3000                           ;	Chosen strategy is simple_byte
  3001   001AA4  506D               	movf	(??_RB5_ISR+1)^0,w,c
  3002   001AA6  0A00               	xorlw	0	; case 0
  3003   001AA8  B4D8               	btfsc	status,2,c
  3004   001AAA  EF59  F00D         	goto	i2l7443
  3005   001AAE  EF64  F00D         	goto	i2l1072
  3006   001AB2                     i2l7443:
  3007                           
  3008                           ; Switch size 1, requested type "simple"
  3009                           ; Number of cases is 2, Range of values is 0 to 1
  3010                           ; switch strategies available:
  3011                           ; Name         Instructions Cycles
  3012                           ; simple_byte            7     4 (average)
  3013                           ;	Chosen strategy is simple_byte
  3014   001AB2  506C               	movf	??_RB5_ISR^0,w,c
  3015   001AB4  0A00               	xorlw	0	; case 0
  3016   001AB6  B4D8               	btfsc	status,2,c
  3017   001AB8  EF4D  F00D         	goto	i2l1068
  3018   001ABC  0A01               	xorlw	1	; case 1
  3019   001ABE  B4D8               	btfsc	status,2,c
  3020   001AC0  EF64  F00D         	goto	i2l1072
  3021   001AC4  EF64  F00D         	goto	i2l1072
  3022   001AC8                     i2l1072:
  3023   001AC8  0012               	return		;funcret
  3024   001ACA                     __end_of_RB5_ISR:
  3025                           	callstack 0
  3026                           
  3027 ;; *************** function _RB4_ISR *****************
  3028 ;; Defined at:
  3029 ;;		line 535 in file "../MCAL_layer/interrupt/mcal_external_interrupt.c"
  3030 ;; Parameters:    Size  Location     Type
  3031 ;;  RB4_Int         1    wreg     unsigned char 
  3032 ;; Auto vars:     Size  Location     Type
  3033 ;;  RB4_Int         1    2[COMRAM] unsigned char 
  3034 ;; Return value:  Size  Location     Type
  3035 ;;                  1    wreg      void 
  3036 ;; Registers used:
  3037 ;;		wreg, status,2, status,0
  3038 ;; Tracked objects:
  3039 ;;		On entry : 0/0
  3040 ;;		On exit  : 0/0
  3041 ;;		Unchanged: 0/0
  3042 ;; Data sizes:     COMRAM   BANK0   BANK1   BANK2   BANK3   BANK4   BANK5   BANK6   BANK7   BANK8   BANK9  BANK10  BANK1
      +1  BANK12  BANK13  BANK14  BANK15
  3043 ;;      Params:         0       0       0       0       0       0       0       0       0       0       0       0       
      +0       0       0       0       0
  3044 ;;      Locals:         1       0       0       0       0       0       0       0       0       0       0       0       
      +0       0       0       0       0
  3045 ;;      Temps:          2       0       0       0       0       0       0       0       0       0       0       0       
      +0       0       0       0       0
  3046 ;;      Totals:         3       0       0       0       0       0       0       0       0       0       0       0       
      +0       0       0       0       0
  3047 ;;Total ram usage:        3 bytes
  3048 ;; Hardware stack levels used: 1
  3049 ;; This function calls:
  3050 ;;		Nothing
  3051 ;; This function is called by:
  3052 ;;		_InterruptManagerHigh
  3053 ;; This function uses a non-reentrant model
  3054 ;;
  3055                           
  3056                           	psect	text18
  3057   001ACA                     __ptext18:
  3058                           	callstack 0
  3059   001ACA                     _RB4_ISR:
  3060                           	callstack 26
  3061                           
  3062                           ;incstack = 0
  3063                           ;RB4_ISR@RB4_Int stored from wreg
  3064   001ACA  6E6E               	movwf	RB4_ISR@RB4_Int^0,c
  3065   001ACC                     
  3066                           ;../MCAL_layer/interrupt/mcal_external_interrupt.c: 535: void RB4_ISR(uint8 RB4_Int);../
      +                          MCAL_layer/interrupt/mcal_external_interrupt.c: 536: {;../MCAL_layer/interrupt/mcal_exte
      +                          rnal_interrupt.c: 538:     (INTCONbits.RBIF=0);
  3067   001ACC  90F2               	bcf	242,0,c	;volatile
  3068                           
  3069                           ;../MCAL_layer/interrupt/mcal_external_interrupt.c: 539:     switch(RB4_Int)
  3070   001ACE  EF6B  F00D         	goto	i2l2787
  3071   001AD2                     i2l1059:
  3072                           
  3073                           ;../MCAL_layer/interrupt/mcal_external_interrupt.c: 546:         break;
  3074   001AD2  EF80  F00D         	goto	i2l1063
  3075   001AD6                     i2l2787:
  3076   001AD6  506E               	movf	RB4_ISR@RB4_Int^0,w,c
  3077   001AD8  6E6C               	movwf	??_RB4_ISR^0,c
  3078   001ADA  6A6D               	clrf	(??_RB4_ISR+1)^0,c
  3079                           
  3080                           ; Switch on 2 bytes has been partitioned into a top level switch of size 1, and 1 sub-sw
      +                          itches
  3081                           ; Switch size 1, requested type "simple"
  3082                           ; Number of cases is 1, Range of values is 0 to 0
  3083                           ; switch strategies available:
  3084                           ; Name         Instructions Cycles
  3085                           ; simple_byte            4     3 (average)
  3086                           ;	Chosen strategy is simple_byte
  3087   001ADC  506D               	movf	(??_RB4_ISR+1)^0,w,c
  3088   001ADE  0A00               	xorlw	0	; case 0
  3089   001AE0  B4D8               	btfsc	status,2,c
  3090   001AE2  EF75  F00D         	goto	i2l7445
  3091   001AE6  EF80  F00D         	goto	i2l1063
  3092   001AEA                     i2l7445:
  3093                           
  3094                           ; Switch size 1, requested type "simple"
  3095                           ; Number of cases is 2, Range of values is 0 to 1
  3096                           ; switch strategies available:
  3097                           ; Name         Instructions Cycles
  3098                           ; simple_byte            7     4 (average)
  3099                           ;	Chosen strategy is simple_byte
  3100   001AEA  506C               	movf	??_RB4_ISR^0,w,c
  3101   001AEC  0A00               	xorlw	0	; case 0
  3102   001AEE  B4D8               	btfsc	status,2,c
  3103   001AF0  EF69  F00D         	goto	i2l1059
  3104   001AF4  0A01               	xorlw	1	; case 1
  3105   001AF6  B4D8               	btfsc	status,2,c
  3106   001AF8  EF80  F00D         	goto	i2l1063
  3107   001AFC  EF80  F00D         	goto	i2l1063
  3108   001B00                     i2l1063:
  3109   001B00  0012               	return		;funcret
  3110   001B02                     __end_of_RB4_ISR:
  3111                           	callstack 0
  3112                           
  3113 ;; *************** function _MSSP_I2C_ISR *****************
  3114 ;; Defined at:
  3115 ;;		line 348 in file "../MCAL_layer/I2C/hal_i2c.c"
  3116 ;; Parameters:    Size  Location     Type
  3117 ;;		None
  3118 ;; Auto vars:     Size  Location     Type
  3119 ;;		None
  3120 ;; Return value:  Size  Location     Type
  3121 ;;                  1    wreg      void 
  3122 ;; Registers used:
  3123 ;;		None
  3124 ;; Tracked objects:
  3125 ;;		On entry : 0/0
  3126 ;;		On exit  : 0/0
  3127 ;;		Unchanged: 0/0
  3128 ;; Data sizes:     COMRAM   BANK0   BANK1   BANK2   BANK3   BANK4   BANK5   BANK6   BANK7   BANK8   BANK9  BANK10  BANK1
      +1  BANK12  BANK13  BANK14  BANK15
  3129 ;;      Params:         0       0       0       0       0       0       0       0       0       0       0       0       
      +0       0       0       0       0
  3130 ;;      Locals:         0       0       0       0       0       0       0       0       0       0       0       0       
      +0       0       0       0       0
  3131 ;;      Temps:          0       0       0       0       0       0       0       0       0       0       0       0       
      +0       0       0       0       0
  3132 ;;      Totals:         0       0       0       0       0       0       0       0       0       0       0       0       
      +0       0       0       0       0
  3133 ;;Total ram usage:        0 bytes
  3134 ;; Hardware stack levels used: 1
  3135 ;; This function calls:
  3136 ;;		Nothing
  3137 ;; This function is called by:
  3138 ;;		_InterruptManagerHigh
  3139 ;; This function uses a non-reentrant model
  3140 ;;
  3141                           
  3142                           	psect	text19
  3143   001B5E                     __ptext19:
  3144                           	callstack 0
  3145   001B5E                     _MSSP_I2C_ISR:
  3146                           	callstack 26
  3147   001B5E                     
  3148                           ;../MCAL_layer/I2C/hal_i2c.c: 351:     (PIR1bits.SSPIF = 0);
  3149   001B5E  969E               	bcf	158,3,c	;volatile
  3150   001B60  0012               	return		;funcret
  3151   001B62                     __end_of_MSSP_I2C_ISR:
  3152                           	callstack 0
  3153                           
  3154 ;; *************** function _MSSP_I2C_BC_ISR *****************
  3155 ;; Defined at:
  3156 ;;		line 359 in file "../MCAL_layer/I2C/hal_i2c.c"
  3157 ;; Parameters:    Size  Location     Type
  3158 ;;		None
  3159 ;; Auto vars:     Size  Location     Type
  3160 ;;		None
  3161 ;; Return value:  Size  Location     Type
  3162 ;;                  1    wreg      void 
  3163 ;; Registers used:
  3164 ;;		None
  3165 ;; Tracked objects:
  3166 ;;		On entry : 0/0
  3167 ;;		On exit  : 0/0
  3168 ;;		Unchanged: 0/0
  3169 ;; Data sizes:     COMRAM   BANK0   BANK1   BANK2   BANK3   BANK4   BANK5   BANK6   BANK7   BANK8   BANK9  BANK10  BANK1
      +1  BANK12  BANK13  BANK14  BANK15
  3170 ;;      Params:         0       0       0       0       0       0       0       0       0       0       0       0       
      +0       0       0       0       0
  3171 ;;      Locals:         0       0       0       0       0       0       0       0       0       0       0       0       
      +0       0       0       0       0
  3172 ;;      Temps:          0       0       0       0       0       0       0       0       0       0       0       0       
      +0       0       0       0       0
  3173 ;;      Totals:         0       0       0       0       0       0       0       0       0       0       0       0       
      +0       0       0       0       0
  3174 ;;Total ram usage:        0 bytes
  3175 ;; Hardware stack levels used: 1
  3176 ;; This function calls:
  3177 ;;		Nothing
  3178 ;; This function is called by:
  3179 ;;		_InterruptManagerHigh
  3180 ;; This function uses a non-reentrant model
  3181 ;;
  3182                           
  3183                           	psect	text20
  3184   001B62                     __ptext20:
  3185                           	callstack 0
  3186   001B62                     _MSSP_I2C_BC_ISR:
  3187                           	callstack 26
  3188   001B62                     
  3189                           ;../MCAL_layer/I2C/hal_i2c.c: 362:     (PIR2bits.BCLIF = 0);
  3190   001B62  96A1               	bcf	161,3,c	;volatile
  3191   001B64  0012               	return		;funcret
  3192   001B66                     __end_of_MSSP_I2C_BC_ISR:
  3193                           	callstack 0
  3194                           
  3195 ;; *************** function _EXTI2_ISR *****************
  3196 ;; Defined at:
  3197 ;;		line 522 in file "../MCAL_layer/interrupt/mcal_external_interrupt.c"
  3198 ;; Parameters:    Size  Location     Type
  3199 ;;		None
  3200 ;; Auto vars:     Size  Location     Type
  3201 ;;		None
  3202 ;; Return value:  Size  Location     Type
  3203 ;;                  1    wreg      void 
  3204 ;; Registers used:
  3205 ;;		None
  3206 ;; Tracked objects:
  3207 ;;		On entry : 0/0
  3208 ;;		On exit  : 0/0
  3209 ;;		Unchanged: 0/0
  3210 ;; Data sizes:     COMRAM   BANK0   BANK1   BANK2   BANK3   BANK4   BANK5   BANK6   BANK7   BANK8   BANK9  BANK10  BANK1
      +1  BANK12  BANK13  BANK14  BANK15
  3211 ;;      Params:         0       0       0       0       0       0       0       0       0       0       0       0       
      +0       0       0       0       0
  3212 ;;      Locals:         0       0       0       0       0       0       0       0       0       0       0       0       
      +0       0       0       0       0
  3213 ;;      Temps:          0       0       0       0       0       0       0       0       0       0       0       0       
      +0       0       0       0       0
  3214 ;;      Totals:         0       0       0       0       0       0       0       0       0       0       0       0       
      +0       0       0       0       0
  3215 ;;Total ram usage:        0 bytes
  3216 ;; Hardware stack levels used: 1
  3217 ;; This function calls:
  3218 ;;		Nothing
  3219 ;; This function is called by:
  3220 ;;		_InterruptManagerHigh
  3221 ;; This function uses a non-reentrant model
  3222 ;;
  3223                           
  3224                           	psect	text21
  3225   001B66                     __ptext21:
  3226                           	callstack 0
  3227   001B66                     _EXTI2_ISR:
  3228                           	callstack 26
  3229   001B66                     
  3230                           ;../MCAL_layer/interrupt/mcal_external_interrupt.c: 525:     (INTCON3bits.INT2IF=0);
  3231   001B66  92F0               	bcf	240,1,c	;volatile
  3232   001B68  0012               	return		;funcret
  3233   001B6A                     __end_of_EXTI2_ISR:
  3234                           	callstack 0
  3235                           
  3236 ;; *************** function _EXTI1_ISR *****************
  3237 ;; Defined at:
  3238 ;;		line 510 in file "../MCAL_layer/interrupt/mcal_external_interrupt.c"
  3239 ;; Parameters:    Size  Location     Type
  3240 ;;		None
  3241 ;; Auto vars:     Size  Location     Type
  3242 ;;		None
  3243 ;; Return value:  Size  Location     Type
  3244 ;;                  1    wreg      void 
  3245 ;; Registers used:
  3246 ;;		None
  3247 ;; Tracked objects:
  3248 ;;		On entry : 0/0
  3249 ;;		On exit  : 0/0
  3250 ;;		Unchanged: 0/0
  3251 ;; Data sizes:     COMRAM   BANK0   BANK1   BANK2   BANK3   BANK4   BANK5   BANK6   BANK7   BANK8   BANK9  BANK10  BANK1
      +1  BANK12  BANK13  BANK14  BANK15
  3252 ;;      Params:         0       0       0       0       0       0       0       0       0       0       0       0       
      +0       0       0       0       0
  3253 ;;      Locals:         0       0       0       0       0       0       0       0       0       0       0       0       
      +0       0       0       0       0
  3254 ;;      Temps:          0       0       0       0       0       0       0       0       0       0       0       0       
      +0       0       0       0       0
  3255 ;;      Totals:         0       0       0       0       0       0       0       0       0       0       0       0       
      +0       0       0       0       0
  3256 ;;Total ram usage:        0 bytes
  3257 ;; Hardware stack levels used: 1
  3258 ;; This function calls:
  3259 ;;		Nothing
  3260 ;; This function is called by:
  3261 ;;		_InterruptManagerHigh
  3262 ;; This function uses a non-reentrant model
  3263 ;;
  3264                           
  3265                           	psect	text22
  3266   001B6A                     __ptext22:
  3267                           	callstack 0
  3268   001B6A                     _EXTI1_ISR:
  3269                           	callstack 26
  3270   001B6A                     
  3271                           ;../MCAL_layer/interrupt/mcal_external_interrupt.c: 513:     (INTCON3bits.INT1IF=0);
  3272   001B6A  90F0               	bcf	240,0,c	;volatile
  3273   001B6C  0012               	return		;funcret
  3274   001B6E                     __end_of_EXTI1_ISR:
  3275                           	callstack 0
  3276                           
  3277 ;; *************** function _EXTI0_ISR *****************
  3278 ;; Defined at:
  3279 ;;		line 497 in file "../MCAL_layer/interrupt/mcal_external_interrupt.c"
  3280 ;; Parameters:    Size  Location     Type
  3281 ;;		None
  3282 ;; Auto vars:     Size  Location     Type
  3283 ;;		None
  3284 ;; Return value:  Size  Location     Type
  3285 ;;                  1    wreg      void 
  3286 ;; Registers used:
  3287 ;;		None
  3288 ;; Tracked objects:
  3289 ;;		On entry : 0/0
  3290 ;;		On exit  : 0/0
  3291 ;;		Unchanged: 0/0
  3292 ;; Data sizes:     COMRAM   BANK0   BANK1   BANK2   BANK3   BANK4   BANK5   BANK6   BANK7   BANK8   BANK9  BANK10  BANK1
      +1  BANK12  BANK13  BANK14  BANK15
  3293 ;;      Params:         0       0       0       0       0       0       0       0       0       0       0       0       
      +0       0       0       0       0
  3294 ;;      Locals:         0       0       0       0       0       0       0       0       0       0       0       0       
      +0       0       0       0       0
  3295 ;;      Temps:          0       0       0       0       0       0       0       0       0       0       0       0       
      +0       0       0       0       0
  3296 ;;      Totals:         0       0       0       0       0       0       0       0       0       0       0       0       
      +0       0       0       0       0
  3297 ;;Total ram usage:        0 bytes
  3298 ;; Hardware stack levels used: 1
  3299 ;; This function calls:
  3300 ;;		Nothing
  3301 ;; This function is called by:
  3302 ;;		_InterruptManagerHigh
  3303 ;; This function uses a non-reentrant model
  3304 ;;
  3305                           
  3306                           	psect	text23
  3307   001B6E                     __ptext23:
  3308                           	callstack 0
  3309   001B6E                     _EXTI0_ISR:
  3310                           	callstack 26
  3311   001B6E                     
  3312                           ;../MCAL_layer/interrupt/mcal_external_interrupt.c: 500:     (INTCONbits.INT0IF=0);
  3313   001B6E  92F2               	bcf	242,1,c	;volatile
  3314   001B70  0012               	return		;funcret
  3315   001B72                     __end_of_EXTI0_ISR:
  3316                           	callstack 0
  3317                           
  3318 ;; *************** function _EUSART_TX_ISR *****************
  3319 ;; Defined at:
  3320 ;;		line 325 in file "../MCAL_layer/USART/hal_usart.c"
  3321 ;; Parameters:    Size  Location     Type
  3322 ;;		None
  3323 ;; Auto vars:     Size  Location     Type
  3324 ;;		None
  3325 ;; Return value:  Size  Location     Type
  3326 ;;                  1    wreg      void 
  3327 ;; Registers used:
  3328 ;;		wreg, status,2, status,0
  3329 ;; Tracked objects:
  3330 ;;		On entry : 0/0
  3331 ;;		On exit  : 0/0
  3332 ;;		Unchanged: 0/0
  3333 ;; Data sizes:     COMRAM   BANK0   BANK1   BANK2   BANK3   BANK4   BANK5   BANK6   BANK7   BANK8   BANK9  BANK10  BANK1
      +1  BANK12  BANK13  BANK14  BANK15
  3334 ;;      Params:         0       0       0       0       0       0       0       0       0       0       0       0       
      +0       0       0       0       0
  3335 ;;      Locals:         0       0       0       0       0       0       0       0       0       0       0       0       
      +0       0       0       0       0
  3336 ;;      Temps:          0       0       0       0       0       0       0       0       0       0       0       0       
      +0       0       0       0       0
  3337 ;;      Totals:         0       0       0       0       0       0       0       0       0       0       0       0       
      +0       0       0       0       0
  3338 ;;Total ram usage:        0 bytes
  3339 ;; Hardware stack levels used: 1
  3340 ;; This function calls:
  3341 ;;		Nothing
  3342 ;; This function is called by:
  3343 ;;		_InterruptManagerHigh
  3344 ;; This function uses a non-reentrant model
  3345 ;;
  3346                           
  3347                           	psect	text24
  3348   001B7A                     __ptext24:
  3349                           	callstack 0
  3350   001B7A                     _EUSART_TX_ISR:
  3351                           	callstack 26
  3352   001B7A  0012               	return		;funcret
  3353   001B7C                     __end_of_EUSART_TX_ISR:
  3354                           	callstack 0
  3355                           
  3356 ;; *************** function _EUSART_RX_ISR *****************
  3357 ;; Defined at:
  3358 ;;		line 333 in file "../MCAL_layer/USART/hal_usart.c"
  3359 ;; Parameters:    Size  Location     Type
  3360 ;;		None
  3361 ;; Auto vars:     Size  Location     Type
  3362 ;;		None
  3363 ;; Return value:  Size  Location     Type
  3364 ;;                  1    wreg      void 
  3365 ;; Registers used:
  3366 ;;		wreg, status,2, status,0
  3367 ;; Tracked objects:
  3368 ;;		On entry : 0/0
  3369 ;;		On exit  : 0/0
  3370 ;;		Unchanged: 0/0
  3371 ;; Data sizes:     COMRAM   BANK0   BANK1   BANK2   BANK3   BANK4   BANK5   BANK6   BANK7   BANK8   BANK9  BANK10  BANK1
      +1  BANK12  BANK13  BANK14  BANK15
  3372 ;;      Params:         0       0       0       0       0       0       0       0       0       0       0       0       
      +0       0       0       0       0
  3373 ;;      Locals:         0       0       0       0       0       0       0       0       0       0       0       0       
      +0       0       0       0       0
  3374 ;;      Temps:          0       0       0       0       0       0       0       0       0       0       0       0       
      +0       0       0       0       0
  3375 ;;      Totals:         0       0       0       0       0       0       0       0       0       0       0       0       
      +0       0       0       0       0
  3376 ;;Total ram usage:        0 bytes
  3377 ;; Hardware stack levels used: 1
  3378 ;; This function calls:
  3379 ;;		Nothing
  3380 ;; This function is called by:
  3381 ;;		_InterruptManagerHigh
  3382 ;; This function uses a non-reentrant model
  3383 ;;
  3384                           
  3385                           	psect	text25
  3386   001B7C                     __ptext25:
  3387                           	callstack 0
  3388   001B7C                     _EUSART_RX_ISR:
  3389                           	callstack 26
  3390   001B7C  0012               	return		;funcret
  3391   001B7E                     __end_of_EUSART_RX_ISR:
  3392                           	callstack 0
  3393                           
  3394 ;; *************** function _CCP2_ISR *****************
  3395 ;; Defined at:
  3396 ;;		line 510 in file "../MCAL_layer/CCP/hal_ccp.c"
  3397 ;; Parameters:    Size  Location     Type
  3398 ;;		None
  3399 ;; Auto vars:     Size  Location     Type
  3400 ;;		None
  3401 ;; Return value:  Size  Location     Type
  3402 ;;                  1    wreg      void 
  3403 ;; Registers used:
  3404 ;;		None
  3405 ;; Tracked objects:
  3406 ;;		On entry : 0/0
  3407 ;;		On exit  : 0/0
  3408 ;;		Unchanged: 0/0
  3409 ;; Data sizes:     COMRAM   BANK0   BANK1   BANK2   BANK3   BANK4   BANK5   BANK6   BANK7   BANK8   BANK9  BANK10  BANK1
      +1  BANK12  BANK13  BANK14  BANK15
  3410 ;;      Params:         0       0       0       0       0       0       0       0       0       0       0       0       
      +0       0       0       0       0
  3411 ;;      Locals:         0       0       0       0       0       0       0       0       0       0       0       0       
      +0       0       0       0       0
  3412 ;;      Temps:          0       0       0       0       0       0       0       0       0       0       0       0       
      +0       0       0       0       0
  3413 ;;      Totals:         0       0       0       0       0       0       0       0       0       0       0       0       
      +0       0       0       0       0
  3414 ;;Total ram usage:        0 bytes
  3415 ;; Hardware stack levels used: 1
  3416 ;; This function calls:
  3417 ;;		Nothing
  3418 ;; This function is called by:
  3419 ;;		_InterruptManagerHigh
  3420 ;; This function uses a non-reentrant model
  3421 ;;
  3422                           
  3423                           	psect	text26
  3424   001B72                     __ptext26:
  3425                           	callstack 0
  3426   001B72                     _CCP2_ISR:
  3427                           	callstack 26
  3428   001B72                     
  3429                           ;../MCAL_layer/CCP/hal_ccp.c: 513:     (PIR2bits.CCP2IF = 0);
  3430   001B72  90A1               	bcf	161,0,c	;volatile
  3431   001B74  0012               	return		;funcret
  3432   001B76                     __end_of_CCP2_ISR:
  3433                           	callstack 0
  3434                           
  3435 ;; *************** function _CCP1_ISR *****************
  3436 ;; Defined at:
  3437 ;;		line 497 in file "../MCAL_layer/CCP/hal_ccp.c"
  3438 ;; Parameters:    Size  Location     Type
  3439 ;;		None
  3440 ;; Auto vars:     Size  Location     Type
  3441 ;;		None
  3442 ;; Return value:  Size  Location     Type
  3443 ;;                  1    wreg      void 
  3444 ;; Registers used:
  3445 ;;		None
  3446 ;; Tracked objects:
  3447 ;;		On entry : 0/0
  3448 ;;		On exit  : 0/0
  3449 ;;		Unchanged: 0/0
  3450 ;; Data sizes:     COMRAM   BANK0   BANK1   BANK2   BANK3   BANK4   BANK5   BANK6   BANK7   BANK8   BANK9  BANK10  BANK1
      +1  BANK12  BANK13  BANK14  BANK15
  3451 ;;      Params:         0       0       0       0       0       0       0       0       0       0       0       0       
      +0       0       0       0       0
  3452 ;;      Locals:         0       0       0       0       0       0       0       0       0       0       0       0       
      +0       0       0       0       0
  3453 ;;      Temps:          0       0       0       0       0       0       0       0       0       0       0       0       
      +0       0       0       0       0
  3454 ;;      Totals:         0       0       0       0       0       0       0       0       0       0       0       0       
      +0       0       0       0       0
  3455 ;;Total ram usage:        0 bytes
  3456 ;; Hardware stack levels used: 1
  3457 ;; This function calls:
  3458 ;;		Nothing
  3459 ;; This function is called by:
  3460 ;;		_InterruptManagerHigh
  3461 ;; This function uses a non-reentrant model
  3462 ;;
  3463                           
  3464                           	psect	text27
  3465   001B76                     __ptext27:
  3466                           	callstack 0
  3467   001B76                     _CCP1_ISR:
  3468                           	callstack 26
  3469   001B76                     
  3470                           ;../MCAL_layer/CCP/hal_ccp.c: 500:     (PIR1bits.CCP1IF = 0);
  3471   001B76  949E               	bcf	158,2,c	;volatile
  3472   001B78  0012               	return		;funcret
  3473   001B7A                     __end_of_CCP1_ISR:
  3474                           	callstack 0
  3475                           
  3476                           	psect	rparam
  3477   000000                     
  3478                           	psect	temp
  3479   00007C                     btemp:
  3480                           	callstack 0
  3481   00007C                     	ds	1
  3482   000000                     int$flags	set	btemp
  3483   000000                     wtemp8	set	btemp+1
  3484   000000                     ttemp5	set	btemp+1
  3485   000000                     ttemp6	set	btemp+4
  3486   000000                     ttemp7	set	btemp+8
  3487                           
  3488                           	psect	config
  3489                           
  3490                           ; Padding undefined space
  3491   300000                     	org	3145728
  3492   300000  FF                 	db	255
  3493                           
  3494                           ;Config register CONFIG1H @ 0x300001
  3495                           ;	Oscillator Selection bits
  3496                           ;	OSC = HS, HS oscillator
  3497                           ;	Fail-Safe Clock Monitor Enable bit
  3498                           ;	FCMEN = OFF, Fail-Safe Clock Monitor disabled
  3499                           ;	Internal/External Oscillator Switchover bit
  3500                           ;	IESO = OFF, Oscillator Switchover mode disabled
  3501   300001                     	org	3145729
  3502   300001  02                 	db	2
  3503                           
  3504                           ;Config register CONFIG2L @ 0x300002
  3505                           ;	Power-up Timer Enable bit
  3506                           ;	PWRT = OFF, PWRT disabled
  3507                           ;	Brown-out Reset Enable bits
  3508                           ;	BOREN = OFF, Brown-out Reset disabled in hardware and software
  3509                           ;	Brown Out Reset Voltage bits
  3510                           ;	BORV = 1, 
  3511   300002                     	org	3145730
  3512   300002  09                 	db	9
  3513                           
  3514                           ;Config register CONFIG2H @ 0x300003
  3515                           ;	Watchdog Timer Enable bit
  3516                           ;	WDT = OFF, WDT disabled (control is placed on the SWDTEN bit)
  3517                           ;	Watchdog Timer Postscale Select bits
  3518                           ;	WDTPS = 32768, 1:32768
  3519   300003                     	org	3145731
  3520   300003  1E                 	db	30
  3521                           
  3522                           ; Padding undefined space
  3523   300004                     	org	3145732
  3524   300004  FF                 	db	255
  3525                           
  3526                           ;Config register CONFIG3H @ 0x300005
  3527                           ;	CCP2 MUX bit
  3528                           ;	CCP2MX = PORTC, CCP2 input/output is multiplexed with RC1
  3529                           ;	PORTB A/D Enable bit
  3530                           ;	PBADEN = OFF, PORTB<4:0> pins are configured as digital I/O on Reset
  3531                           ;	Low-Power Timer1 Oscillator Enable bit
  3532                           ;	LPT1OSC = OFF, Timer1 configured for higher power operation
  3533                           ;	MCLR Pin Enable bit
  3534                           ;	MCLRE = ON, MCLR pin enabled; RE3 input pin disabled
  3535   300005                     	org	3145733
  3536   300005  81                 	db	129
  3537                           
  3538                           ;Config register CONFIG4L @ 0x300006
  3539                           ;	Stack Full/Underflow Reset Enable bit
  3540                           ;	STVREN = ON, Stack full/underflow will cause Reset
  3541                           ;	Single-Supply ICSP Enable bit
  3542                           ;	LVP = OFF, Single-Supply ICSP disabled
  3543                           ;	Extended Instruction Set Enable bit
  3544                           ;	XINST = OFF, Instruction set extension and Indexed Addressing mode disabled (Legacy mo
      +                          de)
  3545                           ;	Background Debugger Enable bit
  3546                           ;	DEBUG = 0x1, unprogrammed default
  3547   300006                     	org	3145734
  3548   300006  81                 	db	129
  3549                           
  3550                           ; Padding undefined space
  3551   300007                     	org	3145735
  3552   300007  FF                 	db	255
  3553                           
  3554                           ;Config register CONFIG5L @ 0x300008
  3555                           ;	Code Protection bit
  3556                           ;	CP0 = OFF, Block 0 (000800-003FFFh) not code-protected
  3557                           ;	Code Protection bit
  3558                           ;	CP1 = OFF, Block 1 (004000-007FFFh) not code-protected
  3559                           ;	Code Protection bit
  3560                           ;	CP2 = OFF, Block 2 (008000-00BFFFh) not code-protected
  3561                           ;	Code Protection bit
  3562                           ;	CP3 = OFF, Block 3 (00C000-00FFFFh) not code-protected
  3563   300008                     	org	3145736
  3564   300008  0F                 	db	15
  3565                           
  3566                           ;Config register CONFIG5H @ 0x300009
  3567                           ;	Boot Block Code Protection bit
  3568                           ;	CPB = OFF, Boot block (000000-0007FFh) not code-protected
  3569                           ;	Data EEPROM Code Protection bit
  3570                           ;	CPD = OFF, Data EEPROM not code-protected
  3571   300009                     	org	3145737
  3572   300009  C0                 	db	192
  3573                           
  3574                           ;Config register CONFIG6L @ 0x30000A
  3575                           ;	Write Protection bit
  3576                           ;	WRT0 = OFF, Block 0 (000800-003FFFh) not write-protected
  3577                           ;	Write Protection bit
  3578                           ;	WRT1 = OFF, Block 1 (004000-007FFFh) not write-protected
  3579                           ;	Write Protection bit
  3580                           ;	WRT2 = OFF, Block 2 (008000-00BFFFh) not write-protected
  3581                           ;	Write Protection bit
  3582                           ;	WRT3 = OFF, Block 3 (00C000-00FFFFh) not write-protected
  3583   30000A                     	org	3145738
  3584   30000A  0F                 	db	15
  3585                           
  3586                           ;Config register CONFIG6H @ 0x30000B
  3587                           ;	Configuration Register Write Protection bit
  3588                           ;	WRTC = OFF, Configuration registers (300000-3000FFh) not write-protected
  3589                           ;	Boot Block Write Protection bit
  3590                           ;	WRTB = OFF, Boot Block (000000-0007FFh) not write-protected
  3591                           ;	Data EEPROM Write Protection bit
  3592                           ;	WRTD = OFF, Data EEPROM not write-protected
  3593   30000B                     	org	3145739
  3594   30000B  E0                 	db	224
  3595                           
  3596                           ;Config register CONFIG7L @ 0x30000C
  3597                           ;	Table Read Protection bit
  3598                           ;	EBTR0 = OFF, Block 0 (000800-003FFFh) not protected from table reads executed in other
      +                           blocks
  3599                           ;	Table Read Protection bit
  3600                           ;	EBTR1 = OFF, Block 1 (004000-007FFFh) not protected from table reads executed in other
      +                           blocks
  3601                           ;	Table Read Protection bit
  3602                           ;	EBTR2 = OFF, Block 2 (008000-00BFFFh) not protected from table reads executed in other
      +                           blocks
  3603                           ;	Table Read Protection bit
  3604                           ;	EBTR3 = OFF, Block 3 (00C000-00FFFFh) not protected from table reads executed in other
      +                           blocks
  3605   30000C                     	org	3145740
  3606   30000C  0F                 	db	15
  3607                           
  3608                           ;Config register CONFIG7H @ 0x30000D
  3609                           ;	Boot Block Table Read Protection bit
  3610                           ;	EBTRB = OFF, Boot Block (000000-0007FFh) not protected from table reads executed in ot
      +                          her blocks
  3611   30000D                     	org	3145741
  3612   30000D  40                 	db	64
  3613                           tosu	equ	0xFFF
  3614                           tosh	equ	0xFFE
  3615                           tosl	equ	0xFFD
  3616                           stkptr	equ	0xFFC
  3617                           pclatu	equ	0xFFB
  3618                           pclath	equ	0xFFA
  3619                           pcl	equ	0xFF9
  3620                           tblptru	equ	0xFF8
  3621                           tblptrh	equ	0xFF7
  3622                           tblptrl	equ	0xFF6
  3623                           tablat	equ	0xFF5
  3624                           prodh	equ	0xFF4
  3625                           prodl	equ	0xFF3
  3626                           indf0	equ	0xFEF
  3627                           postinc0	equ	0xFEE
  3628                           postdec0	equ	0xFED
  3629                           preinc0	equ	0xFEC
  3630                           plusw0	equ	0xFEB
  3631                           fsr0h	equ	0xFEA
  3632                           fsr0l	equ	0xFE9
  3633                           wreg	equ	0xFE8
  3634                           indf1	equ	0xFE7
  3635                           postinc1	equ	0xFE6
  3636                           postdec1	equ	0xFE5
  3637                           preinc1	equ	0xFE4
  3638                           plusw1	equ	0xFE3
  3639                           fsr1h	equ	0xFE2
  3640                           fsr1l	equ	0xFE1
  3641                           bsr	equ	0xFE0
  3642                           indf2	equ	0xFDF
  3643                           postinc2	equ	0xFDE
  3644                           postdec2	equ	0xFDD
  3645                           preinc2	equ	0xFDC
  3646                           plusw2	equ	0xFDB
  3647                           fsr2h	equ	0xFDA
  3648                           fsr2l	equ	0xFD9
  3649                           status	equ	0xFD8

Data Sizes:
    Strings     0
    Constant    16
    Data        56
    BSS         71
    Persistent  1
    Stack       0

Auto Spaces:
    Space          Size  Autos    Used
    COMRAM          126     15     123
    BANK0           128      4      24
    BANK1           256      0       0
    BANK2           256      0       0
    BANK3           256      0       0
    BANK4           256      0       0
    BANK5           256      0       0
    BANK6           256      0       0
    BANK7           256      0       0
    BANK8           256      0       0
    BANK9           256      0       0
    BANK10          256      0       0
    BANK11          256      0       0
    BANK12          256      0       0
    BANK13          256      0       0
    BANK14          256      0       0
    BANK15          128      0       0

Pointer List with Targets:

    ADC_GetConversionResult@_adc$ADC_InterruptHandler	PTR FTN()void  size(2) Largest target is 0

    ADC_Init@_adc$ADC_InterruptHandler	PTR FTN()void  size(2) Largest target is 0

    CCP1_OVF_INTERRUPT_HANDELER	PTR FTN()void  size(2) Largest target is 1
		 -> NULL(), 

    CCP2_OVF_INTERRUPT_HANDELER	PTR FTN()void  size(2) Largest target is 1
		 -> NULL(), 

    ccp_capture_mode_timer_select@_ccp$CCP_InterruptHandler	PTR FTN()void  size(2) Largest target is 0

    CCP_Compare_Mode_Set_Value@_ccp_obj$CCP_InterruptHandler	PTR FTN()void  size(2) Largest target is 0

    CCP_DeInit@_ccp_obj$CCP_InterruptHandler	PTR FTN()void  size(2) Largest target is 0

    CCP_Init@_ccp_obj$CCP_InterruptHandler	PTR FTN()void  size(2) Largest target is 0

    CCP_isCaptureDataReady@_ccp_obj$CCP_InterruptHandler	PTR FTN()void  size(2) Largest target is 0

    CCP_isCompareComplete@_ccp_obj$CCP_InterruptHandler	PTR FTN()void  size(2) Largest target is 0

    CCP_PWM_Set_Duty@_ccp_obj$CCP_InterruptHandler	PTR FTN()void  size(2) Largest target is 0

    CCP_PWM_Start@_ccp_obj$CCP_InterruptHandler	PTR FTN()void  size(2) Largest target is 0

    CCP_PWM_Stop@_ccp_obj$CCP_InterruptHandler	PTR FTN()void  size(2) Largest target is 0

    EUSART_ASYNC_RX_Init@_usart$EUSART_FramingErrorHandler	PTR FTN()void  size(2) Largest target is 0

    EUSART_ASYNC_RX_Init@_usart$EUSART_OverrunErrorHandler	PTR FTN()void  size(2) Largest target is 0

    EUSART_ASYNC_RX_Init@_usart$EUSART_RxDefaultInterruptHandler	PTR FTN()void  size(2) Largest target is 0

    EUSART_ASYNC_RX_Init@_usart$EUSART_TxDefaultInterruptHandler	PTR FTN()void  size(2) Largest target is 0

    EUSART_ASYNC_TX_Init@_usart$EUSART_FramingErrorHandler	PTR FTN()void  size(2) Largest target is 0

    EUSART_ASYNC_TX_Init@_usart$EUSART_OverrunErrorHandler	PTR FTN()void  size(2) Largest target is 0

    EUSART_ASYNC_TX_Init@_usart$EUSART_RxDefaultInterruptHandler	PTR FTN()void  size(2) Largest target is 0

    EUSART_ASYNC_TX_Init@_usart$EUSART_TxDefaultInterruptHandler	PTR FTN()void  size(2) Largest target is 0

    EUSART_Baud_Rate_Calculation@_usart$EUSART_FramingErrorHandler	PTR FTN()void  size(2) Largest target is 0

    EUSART_Baud_Rate_Calculation@_usart$EUSART_OverrunErrorHandler	PTR FTN()void  size(2) Largest target is 0

    EUSART_Baud_Rate_Calculation@_usart$EUSART_RxDefaultInterruptHandler	PTR FTN()void  size(2) Largest target is 0

    EUSART_Baud_Rate_Calculation@_usart$EUSART_TxDefaultInterruptHandler	PTR FTN()void  size(2) Largest target is 0

    EUSART_FRAMING_ERROR_HANDLER	PTR FTN()void  size(2) Largest target is 1
		 -> NULL(), 

    EUSART_OVERRUN_ERROR_HANDLER	PTR FTN()void  size(2) Largest target is 1
		 -> NULL(), 

    EUSART_RX_INTERRUPT_HANDLER	PTR FTN()void  size(2) Largest target is 1
		 -> NULL(), 

    EUSART_TX_INTERRUPT_HANDLER	PTR FTN()void  size(2) Largest target is 1
		 -> NULL(), 

    EXTI0_InterruptHandler	PTR FTN()void  size(2) Largest target is 1
		 -> NULL(), 

    EXTI1_InterruptHandler	PTR FTN()void  size(2) Largest target is 1
		 -> NULL(), 

    EXTI2_InterruptHandler	PTR FTN()void  size(2) Largest target is 1
		 -> NULL(), 

    gpio_pin_direction_initalize@_pin_config	PTR const struct . size(1) Largest target is 2
		 -> adc_input_channel_port_configure@pin(COMRAM[1]), dc_motor_initialize@pin1(COMRAM[1]), dc_motor_initialize@pin2(COMRAM[1]), led_initalize@pin_init(COMRAM[1]), 
		 -> _pin2(COMRAM[1]), _pin3(COMRAM[1]), _pin4(COMRAM[1]), relay_initialize@pin(COMRAM[1]), 
		 -> spi_obj(COMRAM[2]), 

    gpio_pin_initalize@_pin_config	PTR const struct . size(1) Largest target is 2
		 -> dc_motor_initialize@pin1(COMRAM[1]), dc_motor_initialize@pin2(COMRAM[1]), led_initalize@pin_init(COMRAM[1]), _pin2(COMRAM[1]), 
		 -> _pin3(COMRAM[1]), _pin4(COMRAM[1]), relay_initialize@pin(COMRAM[1]), spi_obj(COMRAM[2]), 

    gpio_pin_write_logic@_pin_config	PTR const struct . size(1) Largest target is 2
		 -> dc_motor_initialize@pin1(COMRAM[1]), dc_motor_initialize@pin2(COMRAM[1]), dc_motor_move_left@pin1(COMRAM[1]), dc_motor_move_left@pin2(COMRAM[1]), 
		 -> dc_motor_move_right@pin1(COMRAM[1]), dc_motor_move_right@pin2(COMRAM[1]), dc_motor_stop@pin1(COMRAM[1]), dc_motor_stop@pin2(COMRAM[1]), 
		 -> led_initalize@pin_init(COMRAM[1]), led_turn_off@pin_init(COMRAM[1]), led_turn_on@pin_init(COMRAM[1]), _pin2(COMRAM[1]), 
		 -> _pin3(COMRAM[1]), _pin4(COMRAM[1]), relay_initialize@pin(COMRAM[1]), relay_turn_off@pin(COMRAM[1]), 
		 -> relay_turn_on@pin(COMRAM[1]), spi_obj(COMRAM[2]), 

    I2C_DEFAULT_INTERRUPT_HANDLER	PTR FTN()void  size(2) Largest target is 1
		 -> NULL(), 

    I2C_OVERFLOW_INTERRUPT_HANDLER	PTR FTN()void  size(2) Largest target is 1
		 -> NULL(), 

    I2C_WRITE_COLLISION_INTERRUPT_HANDLER	PTR FTN()void  size(2) Largest target is 1
		 -> NULL(), 

    Interrupt_INTx_Clear_Flag@int_obj$pf	PTR FTN()void  size(2) Largest target is 0

    Interrupt_INTx_Disable@int_obj$pf	PTR FTN()void  size(2) Largest target is 0

    Interrupt_INTx_Edge_Init@int_obj$pf	PTR FTN()void  size(2) Largest target is 0

    Interrupt_INTx_Enable@int_obj$pf	PTR FTN()void  size(2) Largest target is 0

    Interrupt_INTx_Pin_Init@int_obj$pf	PTR FTN()void  size(2) Largest target is 0

    Interrupt_INTx_SetInterruptHandler@int_obj$pf	PTR FTN()void  size(2) Largest target is 0

    interrupt_RBx_Init@int_obj$pf	PTR FTN()void  size(2) Largest target is 0

    interrupt_RBx_Init@int_obj$pf2	PTR FTN()void  size(2) Largest target is 0

    lat_registers	PTR volatile unsigned char [5] size(2) Largest target is 4095
		 -> RAM(DATA[4095]), 

    MSSP_I2C_Init@_i2c$I2C_DefaultInterruptHandler	PTR FTN()void  size(2) Largest target is 0

    MSSP_I2C_Init@_i2c$I2C_Report_Receive_Overflow	PTR FTN()void  size(2) Largest target is 0

    MSSP_I2C_Init@_i2c$I2C_Report_Write_Collision	PTR FTN()void  size(2) Largest target is 0

    MSSP_I2C_Master_Read_Blocking@_i2c$I2C_DefaultInterruptHandler	PTR FTN()void  size(2) Largest target is 0

    MSSP_I2C_Master_Read_Blocking@_i2c$I2C_Report_Receive_Overflow	PTR FTN()void  size(2) Largest target is 0

    MSSP_I2C_Master_Read_Blocking@_i2c$I2C_Report_Write_Collision	PTR FTN()void  size(2) Largest target is 0

    mssp_i2c_select_mode@_i2c$I2C_DefaultInterruptHandler	PTR FTN()void  size(2) Largest target is 0

    mssp_i2c_select_mode@_i2c$I2C_Report_Receive_Overflow	PTR FTN()void  size(2) Largest target is 0

    mssp_i2c_select_mode@_i2c$I2C_Report_Write_Collision	PTR FTN()void  size(2) Largest target is 0

    mssp_interrupt_handler_cfg@_i2c$I2C_DefaultInterruptHandler	PTR FTN()void  size(2) Largest target is 0

    mssp_interrupt_handler_cfg@_i2c$I2C_Report_Receive_Overflow	PTR FTN()void  size(2) Largest target is 0

    mssp_interrupt_handler_cfg@_i2c$I2C_Report_Write_Collision	PTR FTN()void  size(2) Largest target is 0

    mssp_spi_clk_phase_cfg@_spi	PTR const struct . size(1) Largest target is 2
		 -> spi_obj(COMRAM[2]), 

    mssp_spi_clk_polarity_cfg@_spi	PTR const struct . size(1) Largest target is 2
		 -> spi_obj(COMRAM[2]), 

    mssp_spi_clk_sample_cfg@_spi	PTR const struct . size(1) Largest target is 2
		 -> spi_obj(COMRAM[2]), 

    MSSP_SPI_Init@_spi	PTR const struct . size(1) Largest target is 2
		 -> spi_obj(COMRAM[2]), 

    mssp_spi_mode_cfg@_spi	PTR const struct . size(1) Largest target is 2
		 -> spi_obj(COMRAM[2]), 

    MSSP_SPI_Send_Data_default_ss_Blocking@_spi	PTR const struct . size(1) Largest target is 2
		 -> spi_obj(COMRAM[2]), 

    MSSP_SPI_Send_Data_default_ss_Blocking@receivedData	PTR unsigned char  size(1) Largest target is 1
		 -> receivedData(COMRAM[1]), 

    MSSP_SPI_Send_Data_specific_ss_Blocking@_spi	PTR const struct . size(1) Largest target is 2
		 -> spi_obj(COMRAM[2]), 

    MSSP_SPI_Send_Data_specific_ss_Blocking@receivedData	PTR unsigned char  size(1) Largest target is 1
		 -> receivedData(COMRAM[1]), 

    MSSP_SPI_Send_Data_specific_ss_Blocking@ss_pin	PTR const struct . size(1) Largest target is 1
		 -> _pin2(COMRAM[1]), _pin3(COMRAM[1]), _pin4(COMRAM[1]), 

    port_registers	PTR volatile unsigned char [5] size(2) Largest target is 4095
		 -> RAM(DATA[4095]), 

    RB4_InterruptHandler_HIGH	PTR FTN()void  size(2) Largest target is 1
		 -> NULL(), 

    RB4_InterruptHandler_LOW	PTR FTN()void  size(2) Largest target is 1
		 -> NULL(), 

    RB5_InterruptHandler_HIGH	PTR FTN()void  size(2) Largest target is 1
		 -> NULL(), 

    RB5_InterruptHandler_LOW	PTR FTN()void  size(2) Largest target is 1
		 -> NULL(), 

    RB6_InterruptHandler_HIGH	PTR FTN()void  size(2) Largest target is 1
		 -> NULL(), 

    RB6_InterruptHandler_LOW	PTR FTN()void  size(2) Largest target is 1
		 -> NULL(), 

    RB7_InterruptHandler_HIGH	PTR FTN()void  size(2) Largest target is 1
		 -> NULL(), 

    RB7_InterruptHandler_LOW	PTR FTN()void  size(2) Largest target is 1
		 -> NULL(), 

    S1114$CCP_InterruptHandler	PTR FTN()void  size(2) Largest target is 0

    S1842$I2C_DefaultInterruptHandler	PTR FTN()void  size(2) Largest target is 0

    S1842$I2C_Report_Receive_Overflow	PTR FTN()void  size(2) Largest target is 0

    S1842$I2C_Report_Write_Collision	PTR FTN()void  size(2) Largest target is 0

    S2316$pf	PTR FTN()void  size(2) Largest target is 0

    S2354$pf	PTR FTN()void  size(2) Largest target is 0

    S2354$pf2	PTR FTN()void  size(2) Largest target is 0

    S2918$tiemr0_InterruptHandeler	PTR FTN()void  size(2) Largest target is 0

    S3086$Timer1_interruptHandeler	PTR FTN()void  size(2) Largest target is 0

    S3330$Timer2_interruptHandeler	PTR FTN()void  size(2) Largest target is 0

    S3400$Timer3_interruptHandeler	PTR FTN()void  size(2) Largest target is 0

    S3655$EUSART_FramingErrorHandler	PTR FTN()void  size(2) Largest target is 0

    S3655$EUSART_OverrunErrorHandler	PTR FTN()void  size(2) Largest target is 0

    S3655$EUSART_RxDefaultInterruptHandler	PTR FTN()void  size(2) Largest target is 0

    S3655$EUSART_TxDefaultInterruptHandler	PTR FTN()void  size(2) Largest target is 0

    S840$ADC_InterruptHandler	PTR FTN()void  size(2) Largest target is 0

    timer0_Init@_timer$tiemr0_InterruptHandeler	PTR FTN()void  size(2) Largest target is 0

    TIMER0_INTERRUTP_HANDELER	PTR FTN()void  size(2) Largest target is 1
		 -> NULL(), 

    timer0_mode_config@_timer$tiemr0_InterruptHandeler	PTR FTN()void  size(2) Largest target is 0

    timer0_prescaler_config@_timer$tiemr0_InterruptHandeler	PTR FTN()void  size(2) Largest target is 0

    timer0_reg_size_config@_timer$tiemr0_InterruptHandeler	PTR FTN()void  size(2) Largest target is 0

    timer1_clock_config@_timer$Timer1_interruptHandeler	PTR FTN()void  size(2) Largest target is 0

    timer1_Intit@_timer$Timer1_interruptHandeler	PTR FTN()void  size(2) Largest target is 0

    timer1_oscillator_config@_timer$Timer1_interruptHandeler	PTR FTN()void  size(2) Largest target is 0

    TIMER1_OVF_INTERRUPT_HANDELER	PTR FTN()void  size(2) Largest target is 1
		 -> NULL(), 

    timer1_preload_config@_timer$Timer1_interruptHandeler	PTR FTN()void  size(2) Largest target is 0

    TIMER2_COMP_INTERRUPT_HANDELER	PTR FTN()void  size(2) Largest target is 1
		 -> NULL(), 

    timer2_Intit@_timer$Timer2_interruptHandeler	PTR FTN()void  size(2) Largest target is 0

    timer3_Intit@_timer$Timer3_interruptHandeler	PTR FTN()void  size(2) Largest target is 0

    timer3_mode_config@_timer$Timer3_interruptHandeler	PTR FTN()void  size(2) Largest target is 0

    timer3_oscillator_config@_timer$Timer3_interruptHandeler	PTR FTN()void  size(2) Largest target is 0

    TIMER3_OVF_INTERRUPT_HANDELER	PTR FTN()void  size(2) Largest target is 1
		 -> NULL(), 

    timer3_preload_config@_timer$Timer3_interruptHandeler	PTR FTN()void  size(2) Largest target is 0

    tris_registers	PTR volatile unsigned char [5] size(2) Largest target is 4095
		 -> RAM(DATA[4095]), 


Critical Paths under _main in COMRAM

    _main->_MSSP_SPI_Init
    _main->_MSSP_SPI_Send_Data_default_ss_Blocking
    _MSSP_SPI_Send_Data_specific_ss_Blocking->_gpio_pin_initalize
    _MSSP_SPI_Send_Data_default_ss_Blocking->_gpio_pin_write_logic
    _MSSP_SPI_Init->_gpio_pin_initalize
    _mssp_spi_mode_cfg->_mssp_spi_clk_sample_cfg
    _gpio_pin_initalize->_gpio_pin_write_logic

Critical Paths under _InterruptManagerHigh in COMRAM

    _InterruptManagerHigh->_RB4_ISR
    _InterruptManagerHigh->_RB5_ISR
    _InterruptManagerHigh->_RB6_ISR
    _InterruptManagerHigh->_RB7_ISR

Critical Paths under _main in BANK0

    _main->_MSSP_SPI_Send_Data_specific_ss_Blocking

Critical Paths under _InterruptManagerHigh in BANK0

    None.

Critical Paths under _main in BANK1

    None.

Critical Paths under _InterruptManagerHigh in BANK1

    None.

Critical Paths under _main in BANK2

    None.

Critical Paths under _InterruptManagerHigh in BANK2

    None.

Critical Paths under _main in BANK3

    None.

Critical Paths under _InterruptManagerHigh in BANK3

    None.

Critical Paths under _main in BANK4

    None.

Critical Paths under _InterruptManagerHigh in BANK4

    None.

Critical Paths under _main in BANK5

    None.

Critical Paths under _InterruptManagerHigh in BANK5

    None.

Critical Paths under _main in BANK6

    None.

Critical Paths under _InterruptManagerHigh in BANK6

    None.

Critical Paths under _main in BANK7

    None.

Critical Paths under _InterruptManagerHigh in BANK7

    None.

Critical Paths under _main in BANK8

    None.

Critical Paths under _InterruptManagerHigh in BANK8

    None.

Critical Paths under _main in BANK9

    None.

Critical Paths under _InterruptManagerHigh in BANK9

    None.

Critical Paths under _main in BANK10

    None.

Critical Paths under _InterruptManagerHigh in BANK10

    None.

Critical Paths under _main in BANK11

    None.

Critical Paths under _InterruptManagerHigh in BANK11

    None.

Critical Paths under _main in BANK12

    None.

Critical Paths under _InterruptManagerHigh in BANK12

    None.

Critical Paths under _main in BANK13

    None.

Critical Paths under _InterruptManagerHigh in BANK13

    None.

Critical Paths under _main in BANK14

    None.

Critical Paths under _InterruptManagerHigh in BANK14

    None.

Critical Paths under _main in BANK15

    None.

Critical Paths under _InterruptManagerHigh in BANK15

    None.

Call Graph Tables:

 ---------------------------------------------------------------------------------
 (Depth) Function   	        Calls       Base Space   Used Autos Params    Refs
 ---------------------------------------------------------------------------------
 (0) _main                                                 0     0      0   41213
                      _MSSP_SPI_Init
_MSSP_SPI_Send_Data_default_ss_Block
_MSSP_SPI_Send_Data_specific_ss_Bloc
 ---------------------------------------------------------------------------------
 (1) _MSSP_SPI_Send_Data_specific_ss_Blocking              5     1      4   20613
                                             13 COMRAM     1     1      0
                                              0 BANK0      4     0      4
                 _gpio_pin_initalize
               _gpio_pin_write_logic
 ---------------------------------------------------------------------------------
 (1) _MSSP_SPI_Send_Data_default_ss_Blocking               4     1      3    8136
                                             11 COMRAM     4     1      3
               _gpio_pin_write_logic
 ---------------------------------------------------------------------------------
 (1) _MSSP_SPI_Init                                        3     2      1   12464
                                             13 COMRAM     2     1      1
                                              0 BANK0      1     1      0
                 _gpio_pin_initalize
             _mssp_spi_clk_phase_cfg
          _mssp_spi_clk_polarity_cfg
                  _mssp_spi_mode_cfg
 ---------------------------------------------------------------------------------
 (2) _mssp_spi_mode_cfg                                    3     2      1     273
                                              6 COMRAM     3     2      1
            _mssp_spi_clk_sample_cfg
 ---------------------------------------------------------------------------------
 (3) _mssp_spi_clk_sample_cfg                              3     2      1     121
                                              3 COMRAM     3     2      1
 ---------------------------------------------------------------------------------
 (2) _mssp_spi_clk_polarity_cfg                            3     2      1     121
                                              3 COMRAM     3     2      1
 ---------------------------------------------------------------------------------
 (2) _mssp_spi_clk_phase_cfg                               3     2      1     121
                                              3 COMRAM     3     2      1
 ---------------------------------------------------------------------------------
 (2) _gpio_pin_initalize                                   2     1      1   11633
                                             11 COMRAM     2     1      1
       _gpio_pin_direction_initalize
               _gpio_pin_write_logic
 ---------------------------------------------------------------------------------
 (2) _gpio_pin_write_logic                                 8     6      2    7668
                                              3 COMRAM     8     6      2
 ---------------------------------------------------------------------------------
 (3) _gpio_pin_direction_initalize                         7     6      1    1098
                                              3 COMRAM     7     6      1
 ---------------------------------------------------------------------------------
 Estimated maximum stack depth 3
 ---------------------------------------------------------------------------------
 (Depth) Function   	        Calls       Base Space   Used Autos Params    Refs
 ---------------------------------------------------------------------------------
 (4) _InterruptManagerHigh                                 0     0      0      60
                           _CCP1_ISR
                           _CCP2_ISR
                      _EUSART_RX_ISR
                      _EUSART_TX_ISR
                          _EXTI0_ISR
                          _EXTI1_ISR
                          _EXTI2_ISR
                    _MSSP_I2C_BC_ISR
                       _MSSP_I2C_ISR
                            _RB4_ISR
                            _RB5_ISR
                            _RB6_ISR
                            _RB7_ISR
                         _TIMER0_ISR
                     _TIMER1_OVF_ISR
                     _TIMER3_OVF_ISR
 ---------------------------------------------------------------------------------
 (5) _TIMER3_OVF_ISR                                       0     0      0       0
 ---------------------------------------------------------------------------------
 (5) _TIMER1_OVF_ISR                                       0     0      0       0
 ---------------------------------------------------------------------------------
 (5) _TIMER0_ISR                                           0     0      0       0
 ---------------------------------------------------------------------------------
 (5) _RB7_ISR                                              3     3      0      15
                                              0 COMRAM     3     3      0
 ---------------------------------------------------------------------------------
 (5) _RB6_ISR                                              3     3      0      15
                                              0 COMRAM     3     3      0
 ---------------------------------------------------------------------------------
 (5) _RB5_ISR                                              3     3      0      15
                                              0 COMRAM     3     3      0
 ---------------------------------------------------------------------------------
 (5) _RB4_ISR                                              3     3      0      15
                                              0 COMRAM     3     3      0
 ---------------------------------------------------------------------------------
 (5) _MSSP_I2C_ISR                                         0     0      0       0
 ---------------------------------------------------------------------------------
 (5) _MSSP_I2C_BC_ISR                                      0     0      0       0
 ---------------------------------------------------------------------------------
 (5) _EXTI2_ISR                                            0     0      0       0
 ---------------------------------------------------------------------------------
 (5) _EXTI1_ISR                                            0     0      0       0
 ---------------------------------------------------------------------------------
 (5) _EXTI0_ISR                                            0     0      0       0
 ---------------------------------------------------------------------------------
 (5) _EUSART_TX_ISR                                        0     0      0       0
 ---------------------------------------------------------------------------------
 (5) _EUSART_RX_ISR                                        0     0      0       0
 ---------------------------------------------------------------------------------
 (5) _CCP2_ISR                                             0     0      0       0
 ---------------------------------------------------------------------------------
 (5) _CCP1_ISR                                             0     0      0       0
 ---------------------------------------------------------------------------------
 Estimated maximum stack depth 5
 ---------------------------------------------------------------------------------

 Call Graph Graphs:

 _main (ROOT)
   _MSSP_SPI_Init
     _gpio_pin_initalize
       _gpio_pin_direction_initalize
       _gpio_pin_write_logic
     _mssp_spi_clk_phase_cfg
     _mssp_spi_clk_polarity_cfg
     _mssp_spi_mode_cfg
       _mssp_spi_clk_sample_cfg
   _MSSP_SPI_Send_Data_default_ss_Blocking
     _gpio_pin_write_logic
   _MSSP_SPI_Send_Data_specific_ss_Blocking
     _gpio_pin_initalize
     _gpio_pin_write_logic

 _InterruptManagerHigh (ROOT)
   _CCP1_ISR
   _CCP2_ISR
   _EUSART_RX_ISR
   _EUSART_TX_ISR
   _EXTI0_ISR
   _EXTI1_ISR
   _EXTI2_ISR
   _MSSP_I2C_BC_ISR
   _MSSP_I2C_ISR
   _RB4_ISR
   _RB5_ISR
   _RB6_ISR
   _RB7_ISR
   _TIMER0_ISR
   _TIMER1_OVF_ISR
   _TIMER3_OVF_ISR

 Address spaces:
Name               Size   Autos  Total    Cost      Usage
BIGRAM             F7F      0       0      49        0.0%
EEDATA             400      0       0       0        0.0%
BITBANK14          100      0       0      33        0.0%
BANK14             100      0       0      34        0.0%
BITBANK13          100      0       0      31        0.0%
BANK13             100      0       0      32        0.0%
BITBANK12          100      0       0      29        0.0%
BANK12             100      0       0      30        0.0%
BITBANK11          100      0       0      27        0.0%
BANK11             100      0       0      28        0.0%
BITBANK10          100      0       0      25        0.0%
BANK10             100      0       0      26        0.0%
BITBANK9           100      0       0      23        0.0%
BANK9              100      0       0      24        0.0%
BITBANK8           100      0       0      21        0.0%
BANK8              100      0       0      22        0.0%
BITBANK7           100      0       0      19        0.0%
BANK7              100      0       0      20        0.0%
BITBANK6           100      0       0      17        0.0%
BANK6              100      0       0      18        0.0%
BITBANK5           100      0       0      15        0.0%
BANK5              100      0       0      16        0.0%
BITBANK4           100      0       0      13        0.0%
BANK4              100      0       0      14        0.0%
BITBANK3           100      0       0      10        0.0%
BANK3              100      0       0      11        0.0%
BITBANK2           100      0       0       8        0.0%
BANK2              100      0       0       9        0.0%
BITBANK1           100      0       0       6        0.0%
BANK1              100      0       0       7        0.0%
BITBANK15           80      0       0      35        0.0%
BANK15              80      0       0      36        0.0%
BITBANK0            80      0       0       4        0.0%
BANK0               80      4      18       5       18.8%
BITCOMRAM           7E      0       0       0        0.0%
COMRAM              7E      F      7B       1       97.6%
BITBIGSFRhhllhh     18      0       0      38        0.0%
BITBIGSFRlllllh     10      0       0      47        0.0%
BITBIGSFRhhh         D      0       0      37        0.0%
BITBIGSFRllllhl      8      0       0      45        0.0%
BITBIGSFRhhlllh      5      0       0      39        0.0%
BITBIGSFRllllhh      4      0       0      42        0.0%
BITBIGSFRllllhh      4      0       0      41        0.0%
BITBIGSFRllllhh      4      0       0      43        0.0%
BITBIGSFRlllllh      1      0       0      46        0.0%
BITBIGSFRllllhh      1      0       0      40        0.0%
BITBIGSFRllllhh      1      0       0      44        0.0%
BITBIGSFRllllll      1      0       0      48        0.0%
BIGSFR               0      0       0     200        0.0%
BITSFR               0      0       0     200        0.0%
SFR                  0      0       0     200        0.0%
STACK                0      0       0       2        0.0%
NULL                 0      0       0       0        0.0%
ABS                  0      0      93      12        0.0%
DATA                 0      0      93       3        0.0%
CODE                 0      0       0       0        0.0%


Microchip Technology PIC18 Macro Assembler V2.45 build 20230818022343 
Symbol Table                                                                                   Wed Dec 13 18:33:01 2023

                                        _SSPSTATbits 0FC7                                                  l708 16B4  
                                                l727 1A20                                                  l689 1588  
                                                _PR2 0FCB                        _TIMER3_OVF_INTERRUPT_HANDELER 000B  
                             ??_InterruptManagerHigh 006F                            _RB5_InterruptHandler_HIGH 001B  
                                                _ret 007B                                                  wreg 0FE8  
                              relay_initialize@F2885 003A                                      __end_of_RB4_ISR 1B02  
                                    __end_of_RB5_ISR 1ACA                                      __end_of_RB6_ISR 1A92  
                                    __end_of_RB7_ISR 1A5A                                                 l1620 1802  
                                               l1622 1844                                                 l1632 18C4  
                                               l1640 17BC                                                 l1651 1990  
                                               l1635 18EC                                                 l1643 17E6  
                                               l1655 1996                                                 l1647 1944  
                                               l1663 18F2                                                 l1657 199C  
                                               l1649 194A                                                 l1665 18F8  
                                               l1673 1738                                                 l1594 16C0  
                                               l1659 19E2                                                 l1667 193E  
                                               l1675 1784                                                 l6205 1546  
                                               l6221 15DA                                                 l6207 1586  
                                               l6223 15E2                                                 l6231 1688  
                                               l6215 158A                                                 l6225 1632  
                                               l6233 16B2                                                 l6217 159E  
                                               l6241 18EE                                                 l6219 15BE  
                                               l6251 19E4                                                 l6253 19F4  
                                               l6245 18FE                                                 l6341 172E  
                                               l6191 145C                                                 l6255 19FC  
                                               l6343 1730                                                 l6511 1810  
                                               l6193 147C                                                 l6257 1A1E  
                                               l6345 1732                                                 l6337 1722  
                                               l6513 1818                                                 l6521 1840  
                                               l6505 17E8                                                 l7225 16B6  
                                               l6195 1498                                                 l6355 1940  
                                               l6339 1726                                                 l6515 182E  
                                               l6507 17F8                                                 l6531 18C0  
                                               l6197 14A0                                                 l6189 1448  
                                               l6365 1992                                                 l6349 1744  
                                               l6517 1836                                                 l6509 1804  
                                               l6533 18D2                                                 l6525 189C  
                                               l6541 1786                                                 l6199 14F6  
                                               l7431 197A                                                 l6359 1950  
                                               l6519 183E                                                 l6535 18E0  
                                               l6527 18AC                                                 l6551 17D8  
                                               l6543 1798                                                 l7433 19CC  
                                               l6369 19A2                                                 l6537 18EA  
                                               l6529 18B4                                                 l6553 17E4  
                                               l6545 17A0                                                 l7435 169C  
                                               l7427 176E                                                 l6547 17B8  
                                               l7437 1570                                                 l7429 1928  
                                               l6549 17CA                                                 u4500 147C  
                                               u4501 1478                                                 u4510 1498  
                                               u4511 1494                                                 u4610 1914  
                                               u4611 190E                                                 u4540 155C  
                                               u4524 14BE                                                 u4604 1650  
                                               u4620 1916                                                 u4700 175A  
                                               u4541 1556                                                 u4525 14BA  
                                               u4605 164C                                                 u4701 1754  
                                               u4550 155E                                                 u4534 1514  
                                               u4630 19F4                                                 u4710 175C  
                                               u4535 1510                                                 u4631 19F0  
                                               u4560 159E                                                 u4720 1966  
                                               u4561 159A                                                 u4721 1960  
                                               u4490 145C                                                 u4570 15BE  
                                               u4730 1968                                                 u4491 1458  
                                               u4571 15BA                                                 u4580 15DA  
                                               u4740 19B8                                                 u4900 18AC  
                                               u4581 15D6                                                 u4741 19B2  
                                               u4901 18A8                                                 u4750 19BA  
                                               u4910 18D2                                                 u4911 18CE  
                                               u4920 1798                                                 u4921 1794  
                                               u4594 1600                                                 u4930 17CA  
                                               u4595 15FC                                                 u4931 17C6  
                                               u4890 17F8                                                 u4891 17F4  
                                               _TMR2 0FCC                             _RB4_InterruptHandler_LOW 0025  
                                               _main 16B6                                     __end_of_CCP1_ISR 1B7A  
                                   __end_of_CCP2_ISR 1B76                             _RB7_InterruptHandler_LOW 001F  
                                               fsr2h 0FDA                                                 indf2 0FDF  
                                               fsr1l 0FE1                                                 fsr2l 0FD9  
                                               btemp 007C                                                 prodl 0FF3  
                                               start 000E                                         ___param_bank 0000  
                               _gpio_pin_write_logic 158A                                          ?_TIMER0_ISR 006C  
                                      _EUSART_RX_ISR 1B7C                                        _EUSART_TX_ISR 1B7A  
                                              ?_main 006C                                                i2l641 1B78  
                                              i2l645 1B74                                                i2l884 1B60  
                                              i2l888 1B64                                                _RCREG 0FAE  
                                relay_turn_off@F2895 0038                                                _TMR0H 0FD7  
                                              _TMR1H 0FCF                                                _TMR0L 0FD6  
                                              _TMR3H 0FB3                                                _TMR1L 0FCE  
                                              _TMR3L 0FB2                                                _SPBRG 0FAF  
                                              _TXREG 0FAD                                       _TIMER1_OVF_ISR 1B46  
                                              __pin2 006B                                                __pin3 006A  
                                              __pin4 0069                                       _TIMER3_OVF_ISR 1B3A  
                                              tablat 0FF5                                mssp_spi_mode_cfg@_spi 0072  
              adc_input_channel_port_configure@F2980 0066                                                ttemp5 007D  
                                              ttemp6 0080                                                ttemp7 0084  
                                              status 0FD8                                                wtemp8 007D  
                           ??_mssp_spi_clk_phase_cfg 0070      __end_of_MSSP_SPI_Send_Data_specific_ss_Blocking 17E8  
          ??_MSSP_SPI_Send_Data_specific_ss_Blocking 0079             ?_MSSP_SPI_Send_Data_specific_ss_Blocking 0094  
            _MSSP_SPI_Send_Data_specific_ss_Blocking 1786                                      __initialization 1846  
                                       __end_of_main 1722                                ?_gpio_pin_write_logic 006F  
                       _EUSART_FRAMING_ERROR_HANDLER 0003                                       ?_EUSART_RX_ISR 006C  
                                     ?_EUSART_TX_ISR 006C                                        _lat_registers 0048  
                                             ??_main 007B                               __end_of_TIMER1_OVF_ISR 1B52  
                                      __activetblptr 0003                                     led_turn_on@F2896 003D  
                                          ??_RB4_ISR 006C                               _EXTI0_InterruptHandler 002B  
                                          ??_RB5_ISR 006C                                            ??_RB6_ISR 006C  
                                          ??_RB7_ISR 006C                               __end_of_TIMER3_OVF_ISR 1B46  
                                  __end_of_EXTI0_ISR 1B72                                    __end_of_EXTI1_ISR 1B6E  
                                  __end_of_EXTI2_ISR 1B6A                                               _ADRESH 0FC4  
                                             _ADRESL 0FC3                                               _CCPR1H 0FBF  
                                             _CCPR2H 0FBC                                               _CCPR1L 0FBE  
                                             _CCPR2L 0FBB                                               i2l1050 1B6C  
                                             i2l1046 1B70                                               i2l1054 1B68  
                                             i2l1063 1B00                                               i2l1151 105C  
                                             i2l1072 1AC8                                               i2l1081 1A90  
                                             i2l1401 1B44                                               i2l1161 11A0  
                                             i2l1153 1080                                               i2l1090 1A58  
                                             i2l1059 1AD2                                               i2l1219 1B5C  
                                             i2l1171 12E0                                               i2l1163 11E8  
                                             i2l1155 10C8                                               i2l1068 1A9A  
                                             i2l1077 1A62                                               i2l1181 1390  
                                             i2l1173 1304                                               i2l1165 1230  
                                             i2l1157 1110                                               i2l1149 1038  
                                             i2l1086 1A2A                                               i2l1183 13B4  
                                             i2l1175 1328                                               i2l1167 1278  
                                             i2l1159 1158                                               i2l1192 1444  
                                             i2l1185 13D8                                               i2l1177 1348  
                                             i2l1169 12C0                                               i2l1186 1444  
                                             i2l1187 13FC                                               i2l1179 136C  
                                             i2l1189 1420                                               i2l1295 1B50  
                                             i2l1571 1B7C                                               i2l1565 1B7A  
                                             i2l2721 1B76                                               i2l2801 1A9E  
                                             i2l2725 1B72                                               i2l2733 1B62  
                                             i2l2821 1A24                                               i2l4501 1286  
                                             i2l4421 1030                                               i2l2815 1A66  
                                             i2l2807 1A5C                                               i2l4511 12CE  
                                             i2l4503 1294                                               i2l4431 108E  
                                             i2l4423 1046                                               i2l2729 1B5E  
                                             i2l4521 1320                                               i2l4505 12A2  
                                             i2l4441 10D6                                               i2l4433 109C  
                                             i2l4425 1054                                               i2l4417 1014  
                                             i2l2771 1B6A                                               i2l2835 1B52  
                                             i2l2843 1B46                                               i2l2851 1B3A  
                                             i2l4531 137A                                               i2l4523 1336  
                                             i2l4515 12EE                                               i2l4507 12B2  
                                             i2l4451 111E                                               i2l4443 10E4  
                                             i2l4435 10AA                                               i2l4427 106A  
                                             i2l4419 1022                                               i2l2861 1B7C  
                                             i2l2829 1A2E                                               i2l2837 1B54  
                                             i2l2845 1B48                                               i2l2853 1B3C  
                                             i2l4541 13D0                                               i2l4533 1388  
                                             i2l4517 12FC                                               i2l4509 12B8  
                                             i2l4461 1166                                               i2l4453 112C  
                                             i2l4445 10F2                                               i2l4437 10BA  
                                             i2l4429 1078                                               i2l2767 1B6E  
                                             i2l2775 1B66                                               i2l2839 1B58  
                                             i2l2847 1B4C                                               i2l2855 1B40  
                                             i2l4551 142E                                               i2l4543 13E6  
                                             i2l4535 139E                                               i2l4527 1356  
                                             i2l4519 1312                                               i2l4471 11AE  
                                             i2l4463 1174                                               i2l4455 113A  
                                             i2l4447 1102                                               i2l4439 10C0  
                                             i2l2793 1A94                                               i2l4553 143C  
                                             i2l4545 13F4                                               i2l4537 13AC  
                                             i2l4529 1364                                               i2l4481 11F6  
                                             i2l4473 11BC                                               i2l4465 1182  
                                             i2l4457 114A                                               i2l4449 1108  
                                             i2l2859 1B7A                                               i2l2787 1AD6  
                                             i2l2779 1ACC                                               i2l4547 140A  
                                             i2l4539 13C2                                               i2l4491 123E  
                                             i2l4483 1204                                               i2l4475 11CA  
                                             i2l4467 1192                                               i2l4459 1150  
                                             i2l4549 1418                                               i2l4493 124C  
                                             i2l4485 1212                                               i2l4477 11DA  
                                             i2l4469 1198                                               i2l4495 125A  
                                             i2l4487 1222                                               i2l4479 11E0  
                                             i2l4497 126A                                               i2l4489 1228  
                                             i2l4499 1270                                               i2l7441 1A7A  
                                             i2l7443 1AB2                                               i2l7445 1AEA  
                                             i2l7439 1A42                                               _SPBRGH 0FB0  
                                             _SSPADD 0FC8                                               _SSPBUF 0FC9  
 MSSP_SPI_Send_Data_default_ss_Blocking@receivedData 0079                                               clear_0 188C  
                                             isa$std 0001                                      ?_TIMER1_OVF_ISR 006C  
                                          ?_CCP1_ISR 006C                                         __pdataCOMRAM 0048  
                                          ?_CCP2_ISR 006C                                      ?_TIMER3_OVF_ISR 006C  
                                       __mediumconst 0000                                               tblptrh 0FF7  
                                             tblptrl 0FF6                                               tblptru 0FF8  
                           ?_mssp_spi_clk_sample_cfg 006F                           ?_mssp_spi_clk_polarity_cfg 006F  
                              __end_of_MSSP_SPI_Init 1846                                           __accesstop 0080  
                            __end_of__initialization 1892                                        ___rparam_used 0001  
                          _TIMER0_INTERRUTP_HANDELER 0015                               ??_gpio_pin_write_logic 0071  
                                     __pcstackCOMRAM 006C                                         __pidataBANK0 1B26  
                           dc_motor_initialize@F2890 0046                             dc_motor_initialize@F2892 0045  
                                    ??_EUSART_RX_ISR 006C                                      ??_EUSART_TX_ISR 006C  
                                         ??_CCP1_ISR 006C                                           ??_CCP2_ISR 006C  
         MSSP_SPI_Send_Data_default_ss_Blocking@data 0078           MSSP_SPI_Send_Data_default_ss_Blocking@_spi 0077  
      MSSP_SPI_Send_Data_specific_ss_Blocking@ss_pin 0095                                           __pnvCOMRAM 007B  
                             _EXTI1_InterruptHandler 0029       __end_of_MSSP_SPI_Send_Data_default_ss_Blocking 18EE  
           ??_MSSP_SPI_Send_Data_default_ss_Blocking 007A              ?_MSSP_SPI_Send_Data_default_ss_Blocking 0077  
             _MSSP_SPI_Send_Data_default_ss_Blocking 189C                                    led_turn_off@F2901 003C  
                                       ??_TIMER0_ISR 006C                                      led_toggle@F2906 003B  
                           dc_motor_move_right@F2897 0044                             dc_motor_move_right@F2899 0043  
                             _mssp_spi_clk_phase_cfg 1992            MSSP_SPI_Send_Data_default_ss_Blocking@ret 007A  
                                            _RB4_ISR 1ACA                                              _RB5_ISR 1A92  
                                            _RB6_ISR 1A5A                                              _RB7_ISR 1A22  
                          _RB6_InterruptHandler_HIGH 0019                                        ?_MSSP_I2C_ISR 006C  
                              gpio_pin_initalize@ret 0078                                    MSSP_SPI_Init@_spi 0079  
                                         _btn_values 1001                                       _tris_registers 0052  
                                 __end_of_TIMER0_ISR 1B5E                             _RB6_InterruptHandler_LOW 0021  
            gpio_pin_direction_initalize@_pin_config 006F                                    ??_MSSP_I2C_BC_ISR 006C  
                                            __Hparam 0000                                              __Lparam 0000  
                        _CCP2_OVF_INTERRUPT_HANDELER 0033                           __end_of_gpio_pin_initalize 1A22  
                                       __psmallconst 1000                                              __pcinit 1846  
                                            __ramtop 1000                                              __ptext0 16B6  
                                            __ptext1 1786                                              __ptext2 189C  
                                            __ptext3 17E8                                              __ptext4 1722  
                                            __ptext5 18EE                                              __ptext6 1940  
                                            __ptext7 1992                                              __ptext8 19E4  
                                            __ptext9 158A                         _EUSART_OVERRUN_ERROR_HANDLER 0001  
                                          _T0CONbits 0FD5                          _EUSART_RX_INTERRUPT_HANDLER 0005  
                                          _T1CONbits 0FCD                                       ??_MSSP_I2C_ISR 006C  
                                          _T2CONbits 0FCA                                            _T3CONbits 0FB1  
                      _I2C_DEFAULT_INTERRUPT_HANDLER 0031                                              _spi_obj 0067  
                                     __pintcode_body 1012                                 end_of_initialization 1892  
                     _I2C_OVERFLOW_INTERRUPT_HANDLER 002F                                            _EXTI0_ISR 1B6E  
                                          _EXTI1_ISR 1B6A                                            _EXTI2_ISR 1B66  
                     _TIMER2_COMP_INTERRUPT_HANDELER 000D                                            _RB4_enter 0065  
                                          _RB5_enter 0064                                              int_func 1012  
                                 led_initalize@F2891 003E                                            _RB6_enter 0063  
                                          _RB7_enter 0062                                   dc_motor_stop@F2911 0040  
                                 dc_motor_stop@F2913 003F                                       RB4_ISR@RB4_Int 006E  
                                          _RCSTAbits 0FAB                                              postdec1 0FE5  
                                            postdec2 0FDD                                              postinc0 0FEE  
                                            postinc2 0FDE                                     ??_TIMER1_OVF_ISR 006C  
                                   ??_TIMER3_OVF_ISR 006C                                            _PORTBbits 0F81  
               __end_of_gpio_pin_direction_initalize 158A                         _gpio_pin_direction_initalize 1448  
                             _EXTI2_InterruptHandler 0027                                            _TRISAbits 0F92  
                                          _TRISCbits 0F94                                    _mssp_spi_mode_cfg 1722  
                                 ?_mssp_spi_mode_cfg 0072                                           ?_EXTI0_ISR 006C  
                                         ?_EXTI1_ISR 006C                                           ?_EXTI2_ISR 006C  
                        ??_mssp_spi_clk_polarity_cfg 0070                                          _CCP1CONbits 0FBD  
                                        _CCP2CONbits 0FBA                                            _TXSTAbits 0FAC  
                                ??_mssp_spi_mode_cfg 0073                                       RB5_ISR@RB5_Int 006E  
                                 relay_turn_on@F2890 0039                                          _BAUDCONbits 0FB8  
                                      __pidataCOMRAM 1B02                            __end_of_mssp_spi_mode_cfg 1786  
                                start_initialization 1846                        ?_gpio_pin_direction_initalize 006F  
        MSSP_SPI_Send_Data_specific_ss_Blocking@data 0096          MSSP_SPI_Send_Data_specific_ss_Blocking@_spi 0094  
                            dc_motor_move_left@F2904 0042                              dc_motor_move_left@F2906 0041  
                                      _Timer1Preload 000F                                 __end_of_MSSP_I2C_ISR 1B62  
                                      _Timer3Preload 0009                                       RB6_ISR@RB6_Int 006E  
                         mssp_spi_clk_phase_cfg@_spi 006F                              ?_mssp_spi_clk_phase_cfg 006F  
                                        __pdataBANK0 0080                            _mssp_spi_clk_polarity_cfg 1940  
                              __end_of_EUSART_RX_ISR 1B7E                                __end_of_EUSART_TX_ISR 1B7C  
                                           ?_RB4_ISR 006C                                             ?_RB5_ISR 006C  
                                           ?_RB6_ISR 006C                                             ?_RB7_ISR 006C  
                                        __pbssCOMRAM 0001                                        __pcstackBANK0 0094  
                 gpio_pin_direction_initalize@status 0075                                      _MSSP_I2C_BC_ISR 1B62  
                                        ??_EXTI0_ISR 006C                                          ??_EXTI1_ISR 006C  
                                        ??_EXTI2_ISR 006C                        gpio_pin_initalize@_pin_config 0077  
                       __end_of_InterruptManagerHigh 1448                                       RB7_ISR@RB7_Int 006E  
                                          __pintcode 0008                       __end_of_mssp_spi_clk_phase_cfg 19E4  
                    gpio_pin_write_logic@_pin_config 006F                        mssp_spi_clk_polarity_cfg@_spi 006F  
              _I2C_WRITE_COLLISION_INTERRUPT_HANDLER 002D                            gpio_pin_write_logic@logic 0070  
                      _TIMER1_OVF_INTERRUPT_HANDELER 0011                                     MSSP_SPI_Init@ret 0094  
                                        __smallconst 1000                            _RB4_InterruptHandler_HIGH 001D  
                                           _CCP1_ISR 1B76                                             _CCP2_ISR 1B72  
                          _RB7_InterruptHandler_HIGH 0017                                   _gpio_pin_initalize 19E4  
                     ??_gpio_pin_direction_initalize 0070                                         _receivedData 0047  
                                ?_gpio_pin_initalize 0077                             _RB5_InterruptHandler_LOW 0023  
                                      _MSSP_SPI_Init 17E8                                             _PIE1bits 0F9D  
                                           _PIE2bits 0FA0                                             i2u210_40 1054  
                                           i2u210_41 1050                                             i2u211_40 106A  
                                           i2u211_41 1066                                             i2u220_40 1102  
                                           i2u212_40 1078                                             i2u220_41 10FE  
                                           i2u212_41 1074                                             i2u221_40 111E  
                                           i2u213_40 108E                                             i2u221_41 111A  
                                           i2u213_41 108A                                             i2u230_40 11BC  
                                           i2u222_40 112C                                             i2u214_40 109C  
                                           i2u230_41 11B8                                             i2u222_41 1128  
                                           i2u214_41 1098                                             i2u231_40 11CA  
                                           i2u223_40 113A                                             i2u215_40 10AA  
                                           i2u207_40 1022                                             i2u231_41 11C6  
                                           i2u223_41 1136                                             i2u215_41 10A6  
                                           i2u207_41 101E                                             i2u240_40 126A  
                                           i2u232_40 11DA                                             i2u224_40 114A  
                                           i2u216_40 10BA                                             i2u208_40 1030  
                                           i2u240_41 1266                                             i2u232_41 11D6  
                                           i2u224_41 1146                                             i2u216_41 10B6  
                                           i2u208_41 102C                                             i2u241_40 1286  
                                           i2u233_40 11F6                                             i2u225_40 1166  
                                           i2u217_40 10D6                                             i2u209_40 1046  
                                           i2u241_41 1282                                             i2u233_41 11F2  
                                           i2u225_41 1162                                             i2u217_41 10D2  
                                           i2u209_41 1042                                             i2u250_40 1320  
                                           i2u242_40 1294                                             i2u234_40 1204  
                                           i2u226_40 1174                                             i2u218_40 10E4  
                                           i2u250_41 131C                                             i2u242_41 1290  
                                           i2u234_41 1200                                             i2u226_41 1170  
                                           i2u218_41 10E0                                             i2u251_40 1336  
                                           i2u243_40 12A2                                             i2u235_40 1212  
                                           i2u227_40 1182                                             i2u219_40 10F2  
                                           i2u251_41 1332                                             i2u243_41 129E  
                                           i2u235_41 120E                                             i2u227_41 117E  
                                           i2u219_41 10EE                                             i2u260_40 13D0  
                                           i2u252_40 1344                                             i2u244_40 12B2  
                                           i2u236_40 1222                                             i2u228_40 1192  
                                           i2u260_41 13CC                                             i2u252_41 1340  
                                           i2u244_41 12AE                                             i2u236_41 121E  
                                           i2u228_41 118E                                             i2u261_40 13E6  
                                           i2u253_40 1356                                             i2u245_40 12CE  
                                           i2u237_40 123E                                             i2u229_40 11AE  
                                           i2u261_41 13E2                                             i2u253_41 1352  
                                           i2u245_41 12CA                                             i2u237_41 123A  
                                           i2u229_41 11AA                              _mssp_spi_clk_sample_cfg 18EE  
                                           i2u262_40 13F4                                             i2u254_40 1364  
                                           i2u246_40 12DC                                             i2u238_40 124C  
                                           i2u262_41 13F0                                             i2u254_41 1360  
                                           i2u246_41 12D8                                             i2u238_41 1248  
                                           i2u263_40 140A                                             i2u255_40 137A  
                                           i2u247_40 12EE                                             i2u239_40 125A  
                                           i2u263_41 1406                                             i2u255_41 1376  
                                           i2u247_41 12EA                                             i2u239_41 1256  
                                           i2u264_40 1418                                             i2u256_40 1388  
                                           i2u248_40 12FC                                             i2u264_41 1414  
                                           i2u256_41 1384                                             i2u248_41 12F8  
                                           i2u265_40 142E                                             i2u257_40 139E  
                                           i2u249_40 1312                                             i2u265_41 142A  
                                           i2u257_41 139A                                             i2u249_41 130E  
                                           _PIR1bits 0F9E                                             i2u266_40 143C  
                                           i2u258_40 13AC                                             i2u266_41 1438  
                                           i2u258_41 13A8                                             i2u259_40 13C2  
                                           i2u259_41 13BE                                             _PIR2bits 0FA1  
                        _CCP1_OVF_INTERRUPT_HANDELER 0035                                 ??_gpio_pin_initalize 0078  
                                         _ADCON0bits 0FC2                                           _ADCON1bits 0FC1  
                                         _ADCON2bits 0FC0                              __end_of_MSSP_I2C_BC_ISR 1B66  
                        _EUSART_TX_INTERRUPT_HANDLER 0007                                          _INTCON2bits 0FF1  
                                        _INTCON3bits 0FF0                                            copy_data0 185A  
                                          copy_data1 187A                                       ?_MSSP_SPI_Init 0079  
                                         _EECON1bits 0FA6                                             __Hrparam 0000  
                                           __Lrparam 0000                                   __end_of_btn_values 1011  
                                       _MSSP_I2C_ISR 1B5E                                             _lcd_4bit 005C  
                                           _lcd_8bit 008A                                 _InterruptManagerHigh 0008  
                                           __ptext10 1448                                             __ptext20 1B62  
                                           __ptext12 1B3A                                             __ptext21 1B66  
                                           __ptext13 1B46                                             __ptext22 1B6A  
                                           __ptext14 1B52                                             __ptext23 1B6E  
                                           __ptext15 1A22                                             __ptext24 1B7A  
                                           __ptext16 1A5A                                             __ptext25 1B7C  
                                           __ptext17 1A92                                             __ptext26 1B72  
                                           __ptext18 1ACA                                             __ptext27 1B76  
                                           __ptext19 1B5E                            ??_mssp_spi_clk_sample_cfg 0070  
MSSP_SPI_Send_Data_specific_ss_Blocking@receivedData 0097                                             isa$xinst 0000  
                                      _GlobalPreLoad 0037                                             int$flags 007C  
                                   ?_MSSP_I2C_BC_ISR 006C                                           _INTCONbits 0FF2  
                              ?_InterruptManagerHigh 006C                         __end_of_gpio_pin_write_logic 16B6  
                                       _preloadValue 0013                    __end_of_mssp_spi_clk_polarity_cfg 1992  
                                    ??_MSSP_SPI_Init 007A                                             intlevel2 0000  
                                         _TIMER0_ISR 1B52                          mssp_spi_clk_sample_cfg@_spi 006F  
                    __end_of_mssp_spi_clk_sample_cfg 1940                                       _port_registers 0080  
                         gpio_pin_write_logic@status 0076                                          _SSPCON1bits 0FC6  
                                        _SSPCON2bits 0FC5           MSSP_SPI_Send_Data_specific_ss_Blocking@ret 0079  
